ARM GAS  /tmp/ccOrnWzE.s 			page 1


   1              		.cpu cortex-m7
   2              		.arch armv7e-m
   3              		.fpu fpv5-d16
   4              		.eabi_attribute 28, 1
   5              		.eabi_attribute 20, 1
   6              		.eabi_attribute 21, 1
   7              		.eabi_attribute 23, 3
   8              		.eabi_attribute 24, 1
   9              		.eabi_attribute 25, 1
  10              		.eabi_attribute 26, 1
  11              		.eabi_attribute 30, 1
  12              		.eabi_attribute 34, 1
  13              		.eabi_attribute 18, 4
  14              		.file	"stm32h7xx_it.c"
  15              		.text
  16              	.Ltext0:
  17              		.cfi_sections	.debug_frame
  18              		.file 1 "../../../init/rev5/config/Src/stm32h7xx_it.c"
  19              		.section	.text.NMI_Handler,"ax",%progbits
  20              		.align	1
  21              		.global	NMI_Handler
  22              		.syntax unified
  23              		.thumb
  24              		.thumb_func
  26              	NMI_Handler:
  27              	.LFB333:
   1:../../../init/rev5/config/Src/stm32h7xx_it.c **** /*******************************************************************************
   2:../../../init/rev5/config/Src/stm32h7xx_it.c **** *                                                                              *
   3:../../../init/rev5/config/Src/stm32h7xx_it.c **** * FILE:                                                                        *
   4:../../../init/rev5/config/Src/stm32h7xx_it.c **** * 		stm32h7xx_it.c                                                         *
   5:../../../init/rev5/config/Src/stm32h7xx_it.c **** *                                                                              *
   6:../../../init/rev5/config/Src/stm32h7xx_it.c **** * DESCRIPTION:                                                                 *
   7:../../../init/rev5/config/Src/stm32h7xx_it.c **** *       Interrupt Service routines                                             *
   8:../../../init/rev5/config/Src/stm32h7xx_it.c **** *                                                                              *
   9:../../../init/rev5/config/Src/stm32h7xx_it.c **** *******************************************************************************/
  10:../../../init/rev5/config/Src/stm32h7xx_it.c **** 
  11:../../../init/rev5/config/Src/stm32h7xx_it.c **** 
  12:../../../init/rev5/config/Src/stm32h7xx_it.c **** /*------------------------------------------------------------------------------
  13:../../../init/rev5/config/Src/stm32h7xx_it.c ****  Standard Includes                                                              
  14:../../../init/rev5/config/Src/stm32h7xx_it.c **** ------------------------------------------------------------------------------*/
  15:../../../init/rev5/config/Src/stm32h7xx_it.c **** #include "main.h"
  16:../../../init/rev5/config/Src/stm32h7xx_it.c **** #ifdef HOTFIRE
  17:../../../init/rev5/config/Src/stm32h7xx_it.c ****     #include "protocol.h"
  18:../../../init/rev5/config/Src/stm32h7xx_it.c **** #endif
  19:../../../init/rev5/config/Src/stm32h7xx_it.c **** #include "usb.h"
  20:../../../init/rev5/config/Src/stm32h7xx_it.c **** #include "rs485.h"
  21:../../../init/rev5/config/Src/stm32h7xx_it.c **** #include "stm32h7xx_it.h"
  22:../../../init/rev5/config/Src/stm32h7xx_it.c **** 
  23:../../../init/rev5/config/Src/stm32h7xx_it.c **** 
  24:../../../init/rev5/config/Src/stm32h7xx_it.c **** /*------------------------------------------------------------------------------
  25:../../../init/rev5/config/Src/stm32h7xx_it.c ****  Global Variables 
  26:../../../init/rev5/config/Src/stm32h7xx_it.c **** ------------------------------------------------------------------------------*/
  27:../../../init/rev5/config/Src/stm32h7xx_it.c **** extern UART_HandleTypeDef huart1;     /* USB */
  28:../../../init/rev5/config/Src/stm32h7xx_it.c **** extern UART_HandleTypeDef huart4;     /* Wireless/RS485 UART     */
  29:../../../init/rev5/config/Src/stm32h7xx_it.c **** extern uint8_t            gs_command; /* Ground station commands */
  30:../../../init/rev5/config/Src/stm32h7xx_it.c **** 
  31:../../../init/rev5/config/Src/stm32h7xx_it.c **** 
ARM GAS  /tmp/ccOrnWzE.s 			page 2


  32:../../../init/rev5/config/Src/stm32h7xx_it.c **** /*------------------------------------------------------------------------------
  33:../../../init/rev5/config/Src/stm32h7xx_it.c ****  Cortex Processor Interruption and Exception Handlers          
  34:../../../init/rev5/config/Src/stm32h7xx_it.c **** ------------------------------------------------------------------------------*/
  35:../../../init/rev5/config/Src/stm32h7xx_it.c **** 
  36:../../../init/rev5/config/Src/stm32h7xx_it.c **** 
  37:../../../init/rev5/config/Src/stm32h7xx_it.c **** /*******************************************************************************
  38:../../../init/rev5/config/Src/stm32h7xx_it.c **** *                                                                              *
  39:../../../init/rev5/config/Src/stm32h7xx_it.c **** * PROCEDURE:                                                                   *
  40:../../../init/rev5/config/Src/stm32h7xx_it.c **** * 		NMI_Handler                                                            *
  41:../../../init/rev5/config/Src/stm32h7xx_it.c **** *                                                                              *
  42:../../../init/rev5/config/Src/stm32h7xx_it.c **** * DESCRIPTION:                                                                 *
  43:../../../init/rev5/config/Src/stm32h7xx_it.c **** * 		Non-maskable interrupt                                                 *
  44:../../../init/rev5/config/Src/stm32h7xx_it.c **** *                                                                              *
  45:../../../init/rev5/config/Src/stm32h7xx_it.c **** *******************************************************************************/
  46:../../../init/rev5/config/Src/stm32h7xx_it.c **** void NMI_Handler
  47:../../../init/rev5/config/Src/stm32h7xx_it.c ****     (
  48:../../../init/rev5/config/Src/stm32h7xx_it.c ****     void
  49:../../../init/rev5/config/Src/stm32h7xx_it.c ****     )
  50:../../../init/rev5/config/Src/stm32h7xx_it.c **** {
  28              		.loc 1 50 1 view -0
  29              		.cfi_startproc
  30              		@ Volatile: function does not return.
  31              		@ args = 0, pretend = 0, frame = 0
  32              		@ frame_needed = 0, uses_anonymous_args = 0
  33              		@ link register save eliminated.
  34              	.L2:
  51:../../../init/rev5/config/Src/stm32h7xx_it.c **** while (1)
  35              		.loc 1 51 1 discriminator 1 view .LVU1
  52:../../../init/rev5/config/Src/stm32h7xx_it.c ****   {
  53:../../../init/rev5/config/Src/stm32h7xx_it.c ****   }
  36              		.loc 1 53 3 discriminator 1 view .LVU2
  51:../../../init/rev5/config/Src/stm32h7xx_it.c **** while (1)
  37              		.loc 1 51 7 discriminator 1 view .LVU3
  38 0000 FEE7     		b	.L2
  39              		.cfi_endproc
  40              	.LFE333:
  42              		.section	.text.HardFault_Handler,"ax",%progbits
  43              		.align	1
  44              		.global	HardFault_Handler
  45              		.syntax unified
  46              		.thumb
  47              		.thumb_func
  49              	HardFault_Handler:
  50              	.LFB334:
  54:../../../init/rev5/config/Src/stm32h7xx_it.c **** } /* NMI_Handler */
  55:../../../init/rev5/config/Src/stm32h7xx_it.c **** 
  56:../../../init/rev5/config/Src/stm32h7xx_it.c **** 
  57:../../../init/rev5/config/Src/stm32h7xx_it.c **** /*******************************************************************************
  58:../../../init/rev5/config/Src/stm32h7xx_it.c **** *                                                                              *
  59:../../../init/rev5/config/Src/stm32h7xx_it.c **** * PROCEDURE:                                                                   *
  60:../../../init/rev5/config/Src/stm32h7xx_it.c **** * 		HardFault_Handler                                                      *
  61:../../../init/rev5/config/Src/stm32h7xx_it.c **** *                                                                              *
  62:../../../init/rev5/config/Src/stm32h7xx_it.c **** * DESCRIPTION:                                                                 *
  63:../../../init/rev5/config/Src/stm32h7xx_it.c **** *       This function handles Hard fault interrupt                             *
  64:../../../init/rev5/config/Src/stm32h7xx_it.c **** *                                                                              *
  65:../../../init/rev5/config/Src/stm32h7xx_it.c **** *******************************************************************************/
  66:../../../init/rev5/config/Src/stm32h7xx_it.c **** void HardFault_Handler
ARM GAS  /tmp/ccOrnWzE.s 			page 3


  67:../../../init/rev5/config/Src/stm32h7xx_it.c ****     (
  68:../../../init/rev5/config/Src/stm32h7xx_it.c ****     void
  69:../../../init/rev5/config/Src/stm32h7xx_it.c ****     )
  70:../../../init/rev5/config/Src/stm32h7xx_it.c **** {
  51              		.loc 1 70 1 view -0
  52              		.cfi_startproc
  53              		@ Volatile: function does not return.
  54              		@ args = 0, pretend = 0, frame = 0
  55              		@ frame_needed = 0, uses_anonymous_args = 0
  56              		@ link register save eliminated.
  57              	.L4:
  71:../../../init/rev5/config/Src/stm32h7xx_it.c **** while (1)
  58              		.loc 1 71 1 discriminator 1 view .LVU5
  72:../../../init/rev5/config/Src/stm32h7xx_it.c ****     {
  73:../../../init/rev5/config/Src/stm32h7xx_it.c ****     }
  59              		.loc 1 73 5 discriminator 1 view .LVU6
  71:../../../init/rev5/config/Src/stm32h7xx_it.c **** while (1)
  60              		.loc 1 71 7 discriminator 1 view .LVU7
  61 0000 FEE7     		b	.L4
  62              		.cfi_endproc
  63              	.LFE334:
  65              		.section	.text.MemManage_Handler,"ax",%progbits
  66              		.align	1
  67              		.global	MemManage_Handler
  68              		.syntax unified
  69              		.thumb
  70              		.thumb_func
  72              	MemManage_Handler:
  73              	.LFB335:
  74:../../../init/rev5/config/Src/stm32h7xx_it.c **** } /* HardFault_Handler */
  75:../../../init/rev5/config/Src/stm32h7xx_it.c **** 
  76:../../../init/rev5/config/Src/stm32h7xx_it.c **** 
  77:../../../init/rev5/config/Src/stm32h7xx_it.c **** /*******************************************************************************
  78:../../../init/rev5/config/Src/stm32h7xx_it.c **** *                                                                              *
  79:../../../init/rev5/config/Src/stm32h7xx_it.c **** * PROCEDURE:                                                                   *
  80:../../../init/rev5/config/Src/stm32h7xx_it.c **** * 		MemManage_Handler                                                      *
  81:../../../init/rev5/config/Src/stm32h7xx_it.c **** *                                                                              *
  82:../../../init/rev5/config/Src/stm32h7xx_it.c **** * DESCRIPTION:                                                                 *
  83:../../../init/rev5/config/Src/stm32h7xx_it.c **** *       Memory management fault                                                *
  84:../../../init/rev5/config/Src/stm32h7xx_it.c **** *                                                                              *
  85:../../../init/rev5/config/Src/stm32h7xx_it.c **** *******************************************************************************/
  86:../../../init/rev5/config/Src/stm32h7xx_it.c **** void MemManage_Handler
  87:../../../init/rev5/config/Src/stm32h7xx_it.c ****     (
  88:../../../init/rev5/config/Src/stm32h7xx_it.c ****     void
  89:../../../init/rev5/config/Src/stm32h7xx_it.c ****     )
  90:../../../init/rev5/config/Src/stm32h7xx_it.c **** {
  74              		.loc 1 90 1 view -0
  75              		.cfi_startproc
  76              		@ Volatile: function does not return.
  77              		@ args = 0, pretend = 0, frame = 0
  78              		@ frame_needed = 0, uses_anonymous_args = 0
  79              		@ link register save eliminated.
  80              	.L6:
  91:../../../init/rev5/config/Src/stm32h7xx_it.c **** while (1)
  81              		.loc 1 91 1 discriminator 1 view .LVU9
  92:../../../init/rev5/config/Src/stm32h7xx_it.c ****     {
  93:../../../init/rev5/config/Src/stm32h7xx_it.c ****     }
ARM GAS  /tmp/ccOrnWzE.s 			page 4


  82              		.loc 1 93 5 discriminator 1 view .LVU10
  91:../../../init/rev5/config/Src/stm32h7xx_it.c **** while (1)
  83              		.loc 1 91 7 discriminator 1 view .LVU11
  84 0000 FEE7     		b	.L6
  85              		.cfi_endproc
  86              	.LFE335:
  88              		.section	.text.BusFault_Handler,"ax",%progbits
  89              		.align	1
  90              		.global	BusFault_Handler
  91              		.syntax unified
  92              		.thumb
  93              		.thumb_func
  95              	BusFault_Handler:
  96              	.LFB336:
  94:../../../init/rev5/config/Src/stm32h7xx_it.c **** } /* MemManage_Handler */
  95:../../../init/rev5/config/Src/stm32h7xx_it.c **** 
  96:../../../init/rev5/config/Src/stm32h7xx_it.c **** 
  97:../../../init/rev5/config/Src/stm32h7xx_it.c **** /*******************************************************************************
  98:../../../init/rev5/config/Src/stm32h7xx_it.c **** *                                                                              *
  99:../../../init/rev5/config/Src/stm32h7xx_it.c **** * PROCEDURE:                                                                   *
 100:../../../init/rev5/config/Src/stm32h7xx_it.c **** * 		BusFault_Handler                                                       *
 101:../../../init/rev5/config/Src/stm32h7xx_it.c **** *                                                                              *
 102:../../../init/rev5/config/Src/stm32h7xx_it.c **** * DESCRIPTION:                                                                 *
 103:../../../init/rev5/config/Src/stm32h7xx_it.c **** *       Pre-fetch fault, memory access fault                                   *
 104:../../../init/rev5/config/Src/stm32h7xx_it.c **** *                                                                              *
 105:../../../init/rev5/config/Src/stm32h7xx_it.c **** *******************************************************************************/
 106:../../../init/rev5/config/Src/stm32h7xx_it.c **** void BusFault_Handler
 107:../../../init/rev5/config/Src/stm32h7xx_it.c ****     (
 108:../../../init/rev5/config/Src/stm32h7xx_it.c ****     void
 109:../../../init/rev5/config/Src/stm32h7xx_it.c ****     )
 110:../../../init/rev5/config/Src/stm32h7xx_it.c **** {
  97              		.loc 1 110 1 view -0
  98              		.cfi_startproc
  99              		@ Volatile: function does not return.
 100              		@ args = 0, pretend = 0, frame = 0
 101              		@ frame_needed = 0, uses_anonymous_args = 0
 102              		@ link register save eliminated.
 103              	.L8:
 111:../../../init/rev5/config/Src/stm32h7xx_it.c **** while (1)
 104              		.loc 1 111 1 discriminator 1 view .LVU13
 112:../../../init/rev5/config/Src/stm32h7xx_it.c ****     {
 113:../../../init/rev5/config/Src/stm32h7xx_it.c ****     }
 105              		.loc 1 113 5 discriminator 1 view .LVU14
 111:../../../init/rev5/config/Src/stm32h7xx_it.c **** while (1)
 106              		.loc 1 111 7 discriminator 1 view .LVU15
 107 0000 FEE7     		b	.L8
 108              		.cfi_endproc
 109              	.LFE336:
 111              		.section	.text.UsageFault_Handler,"ax",%progbits
 112              		.align	1
 113              		.global	UsageFault_Handler
 114              		.syntax unified
 115              		.thumb
 116              		.thumb_func
 118              	UsageFault_Handler:
 119              	.LFB337:
 114:../../../init/rev5/config/Src/stm32h7xx_it.c **** } /* BusFault_Handler */
ARM GAS  /tmp/ccOrnWzE.s 			page 5


 115:../../../init/rev5/config/Src/stm32h7xx_it.c **** 
 116:../../../init/rev5/config/Src/stm32h7xx_it.c **** 
 117:../../../init/rev5/config/Src/stm32h7xx_it.c **** /*******************************************************************************
 118:../../../init/rev5/config/Src/stm32h7xx_it.c **** *                                                                              *
 119:../../../init/rev5/config/Src/stm32h7xx_it.c **** * PROCEDURE:                                                                   *
 120:../../../init/rev5/config/Src/stm32h7xx_it.c **** * 		UsageFault_Handler                                                     *
 121:../../../init/rev5/config/Src/stm32h7xx_it.c **** *                                                                              *
 122:../../../init/rev5/config/Src/stm32h7xx_it.c **** * DESCRIPTION:                                                                 *
 123:../../../init/rev5/config/Src/stm32h7xx_it.c **** *       Undefined instruction or illegal state                                 *
 124:../../../init/rev5/config/Src/stm32h7xx_it.c **** *                                                                              *
 125:../../../init/rev5/config/Src/stm32h7xx_it.c **** *******************************************************************************/
 126:../../../init/rev5/config/Src/stm32h7xx_it.c **** void UsageFault_Handler
 127:../../../init/rev5/config/Src/stm32h7xx_it.c ****     (
 128:../../../init/rev5/config/Src/stm32h7xx_it.c ****     void
 129:../../../init/rev5/config/Src/stm32h7xx_it.c ****     )
 130:../../../init/rev5/config/Src/stm32h7xx_it.c **** {
 120              		.loc 1 130 1 view -0
 121              		.cfi_startproc
 122              		@ Volatile: function does not return.
 123              		@ args = 0, pretend = 0, frame = 0
 124              		@ frame_needed = 0, uses_anonymous_args = 0
 125              		@ link register save eliminated.
 126              	.L10:
 131:../../../init/rev5/config/Src/stm32h7xx_it.c **** while (1)
 127              		.loc 1 131 1 discriminator 1 view .LVU17
 132:../../../init/rev5/config/Src/stm32h7xx_it.c ****     {
 133:../../../init/rev5/config/Src/stm32h7xx_it.c ****     }
 128              		.loc 1 133 5 discriminator 1 view .LVU18
 131:../../../init/rev5/config/Src/stm32h7xx_it.c **** while (1)
 129              		.loc 1 131 7 discriminator 1 view .LVU19
 130 0000 FEE7     		b	.L10
 131              		.cfi_endproc
 132              	.LFE337:
 134              		.section	.text.SVC_Handler,"ax",%progbits
 135              		.align	1
 136              		.global	SVC_Handler
 137              		.syntax unified
 138              		.thumb
 139              		.thumb_func
 141              	SVC_Handler:
 142              	.LFB338:
 134:../../../init/rev5/config/Src/stm32h7xx_it.c **** } /* UsageFault_Handler */
 135:../../../init/rev5/config/Src/stm32h7xx_it.c **** 
 136:../../../init/rev5/config/Src/stm32h7xx_it.c **** 
 137:../../../init/rev5/config/Src/stm32h7xx_it.c **** /*******************************************************************************
 138:../../../init/rev5/config/Src/stm32h7xx_it.c **** *                                                                              *
 139:../../../init/rev5/config/Src/stm32h7xx_it.c **** * PROCEDURE:                                                                   *
 140:../../../init/rev5/config/Src/stm32h7xx_it.c **** * 		SVC_Handler                                                            *
 141:../../../init/rev5/config/Src/stm32h7xx_it.c **** *                                                                              *
 142:../../../init/rev5/config/Src/stm32h7xx_it.c **** * DESCRIPTION:                                                                 *
 143:../../../init/rev5/config/Src/stm32h7xx_it.c **** *       Handles system service call via SWI instruction                        *
 144:../../../init/rev5/config/Src/stm32h7xx_it.c **** *                                                                              *
 145:../../../init/rev5/config/Src/stm32h7xx_it.c **** *******************************************************************************/
 146:../../../init/rev5/config/Src/stm32h7xx_it.c **** void SVC_Handler
 147:../../../init/rev5/config/Src/stm32h7xx_it.c ****     (
 148:../../../init/rev5/config/Src/stm32h7xx_it.c ****     void
 149:../../../init/rev5/config/Src/stm32h7xx_it.c ****     )
ARM GAS  /tmp/ccOrnWzE.s 			page 6


 150:../../../init/rev5/config/Src/stm32h7xx_it.c **** {
 143              		.loc 1 150 1 view -0
 144              		.cfi_startproc
 145              		@ args = 0, pretend = 0, frame = 0
 146              		@ frame_needed = 0, uses_anonymous_args = 0
 147              		@ link register save eliminated.
 151:../../../init/rev5/config/Src/stm32h7xx_it.c **** } /* SVC_Handler */
 148              		.loc 1 151 1 view .LVU21
 149 0000 7047     		bx	lr
 150              		.cfi_endproc
 151              	.LFE338:
 153              		.section	.text.DebugMon_Handler,"ax",%progbits
 154              		.align	1
 155              		.global	DebugMon_Handler
 156              		.syntax unified
 157              		.thumb
 158              		.thumb_func
 160              	DebugMon_Handler:
 161              	.LFB339:
 152:../../../init/rev5/config/Src/stm32h7xx_it.c **** 
 153:../../../init/rev5/config/Src/stm32h7xx_it.c **** 
 154:../../../init/rev5/config/Src/stm32h7xx_it.c **** /*******************************************************************************
 155:../../../init/rev5/config/Src/stm32h7xx_it.c **** *                                                                              *
 156:../../../init/rev5/config/Src/stm32h7xx_it.c **** * PROCEDURE:                                                                   *
 157:../../../init/rev5/config/Src/stm32h7xx_it.c **** * 		DebugMon_Handler                                                       *
 158:../../../init/rev5/config/Src/stm32h7xx_it.c **** *                                                                              *
 159:../../../init/rev5/config/Src/stm32h7xx_it.c **** * DESCRIPTION:                                                                 *
 160:../../../init/rev5/config/Src/stm32h7xx_it.c **** *       Handles debug monitor                                                  *
 161:../../../init/rev5/config/Src/stm32h7xx_it.c **** *                                                                              *
 162:../../../init/rev5/config/Src/stm32h7xx_it.c **** *******************************************************************************/
 163:../../../init/rev5/config/Src/stm32h7xx_it.c **** void DebugMon_Handler
 164:../../../init/rev5/config/Src/stm32h7xx_it.c ****     (
 165:../../../init/rev5/config/Src/stm32h7xx_it.c ****     void
 166:../../../init/rev5/config/Src/stm32h7xx_it.c ****     )
 167:../../../init/rev5/config/Src/stm32h7xx_it.c **** {
 162              		.loc 1 167 1 view -0
 163              		.cfi_startproc
 164              		@ args = 0, pretend = 0, frame = 0
 165              		@ frame_needed = 0, uses_anonymous_args = 0
 166              		@ link register save eliminated.
 168:../../../init/rev5/config/Src/stm32h7xx_it.c **** } /* DebugMon_Handler */
 167              		.loc 1 168 1 view .LVU23
 168 0000 7047     		bx	lr
 169              		.cfi_endproc
 170              	.LFE339:
 172              		.section	.text.PendSV_Handler,"ax",%progbits
 173              		.align	1
 174              		.global	PendSV_Handler
 175              		.syntax unified
 176              		.thumb
 177              		.thumb_func
 179              	PendSV_Handler:
 180              	.LFB340:
 169:../../../init/rev5/config/Src/stm32h7xx_it.c **** 
 170:../../../init/rev5/config/Src/stm32h7xx_it.c **** 
 171:../../../init/rev5/config/Src/stm32h7xx_it.c **** /*******************************************************************************
 172:../../../init/rev5/config/Src/stm32h7xx_it.c **** *                                                                              *
ARM GAS  /tmp/ccOrnWzE.s 			page 7


 173:../../../init/rev5/config/Src/stm32h7xx_it.c **** * PROCEDURE:                                                                   *
 174:../../../init/rev5/config/Src/stm32h7xx_it.c **** * 		PendSV_Handler                                                         *
 175:../../../init/rev5/config/Src/stm32h7xx_it.c **** *                                                                              *
 176:../../../init/rev5/config/Src/stm32h7xx_it.c **** * DESCRIPTION:                                                                 *
 177:../../../init/rev5/config/Src/stm32h7xx_it.c **** *       Handles pendable request for system service                            *
 178:../../../init/rev5/config/Src/stm32h7xx_it.c **** *                                                                              *
 179:../../../init/rev5/config/Src/stm32h7xx_it.c **** *******************************************************************************/
 180:../../../init/rev5/config/Src/stm32h7xx_it.c **** void PendSV_Handler
 181:../../../init/rev5/config/Src/stm32h7xx_it.c ****     (
 182:../../../init/rev5/config/Src/stm32h7xx_it.c ****     void
 183:../../../init/rev5/config/Src/stm32h7xx_it.c ****     )
 184:../../../init/rev5/config/Src/stm32h7xx_it.c **** {
 181              		.loc 1 184 1 view -0
 182              		.cfi_startproc
 183              		@ args = 0, pretend = 0, frame = 0
 184              		@ frame_needed = 0, uses_anonymous_args = 0
 185              		@ link register save eliminated.
 185:../../../init/rev5/config/Src/stm32h7xx_it.c **** } /* PendSV_Handler */
 186              		.loc 1 185 1 view .LVU25
 187 0000 7047     		bx	lr
 188              		.cfi_endproc
 189              	.LFE340:
 191              		.section	.text.SysTick_Handler,"ax",%progbits
 192              		.align	1
 193              		.global	SysTick_Handler
 194              		.syntax unified
 195              		.thumb
 196              		.thumb_func
 198              	SysTick_Handler:
 199              	.LFB341:
 186:../../../init/rev5/config/Src/stm32h7xx_it.c **** 
 187:../../../init/rev5/config/Src/stm32h7xx_it.c **** 
 188:../../../init/rev5/config/Src/stm32h7xx_it.c **** /*******************************************************************************
 189:../../../init/rev5/config/Src/stm32h7xx_it.c **** *                                                                              *
 190:../../../init/rev5/config/Src/stm32h7xx_it.c **** * PROCEDURE:                                                                   *
 191:../../../init/rev5/config/Src/stm32h7xx_it.c **** * 		SysTick_Handler                                                        *
 192:../../../init/rev5/config/Src/stm32h7xx_it.c **** *                                                                              *
 193:../../../init/rev5/config/Src/stm32h7xx_it.c **** * DESCRIPTION:                                                                 *
 194:../../../init/rev5/config/Src/stm32h7xx_it.c **** *       Handles system tick timer                                              *
 195:../../../init/rev5/config/Src/stm32h7xx_it.c **** *                                                                              *
 196:../../../init/rev5/config/Src/stm32h7xx_it.c **** *******************************************************************************/
 197:../../../init/rev5/config/Src/stm32h7xx_it.c **** void SysTick_Handler
 198:../../../init/rev5/config/Src/stm32h7xx_it.c ****     (
 199:../../../init/rev5/config/Src/stm32h7xx_it.c ****     void
 200:../../../init/rev5/config/Src/stm32h7xx_it.c ****     )
 201:../../../init/rev5/config/Src/stm32h7xx_it.c **** {
 200              		.loc 1 201 1 view -0
 201              		.cfi_startproc
 202              		@ args = 0, pretend = 0, frame = 0
 203              		@ frame_needed = 0, uses_anonymous_args = 0
 204 0000 08B5     		push	{r3, lr}
 205              	.LCFI0:
 206              		.cfi_def_cfa_offset 8
 207              		.cfi_offset 3, -8
 208              		.cfi_offset 14, -4
 202:../../../init/rev5/config/Src/stm32h7xx_it.c **** HAL_IncTick();
 209              		.loc 1 202 1 view .LVU27
ARM GAS  /tmp/ccOrnWzE.s 			page 8


 210 0002 FFF7FEFF 		bl	HAL_IncTick
 211              	.LVL0:
 203:../../../init/rev5/config/Src/stm32h7xx_it.c **** } /* SysTick_Handler */
 212              		.loc 1 203 1 is_stmt 0 view .LVU28
 213 0006 08BD     		pop	{r3, pc}
 214              		.cfi_endproc
 215              	.LFE341:
 217              		.text
 218              	.Letext0:
 219              		.file 2 "../../../lib/Drivers/STM32H7xx_HAL_Driver/Inc/stm32h7xx_hal.h"
ARM GAS  /tmp/ccOrnWzE.s 			page 9

