ARM GAS  /tmp/ccta2Cae.s 			page 1


   1              		.cpu cortex-m7
   2              		.arch armv7e-m
   3              		.fpu fpv5-d16
   4              		.eabi_attribute 28, 1
   5              		.eabi_attribute 20, 1
   6              		.eabi_attribute 21, 1
   7              		.eabi_attribute 23, 3
   8              		.eabi_attribute 24, 1
   9              		.eabi_attribute 25, 1
  10              		.eabi_attribute 26, 1
  11              		.eabi_attribute 30, 1
  12              		.eabi_attribute 34, 1
  13              		.eabi_attribute 18, 4
  14              		.file	"init.c"
  15              		.text
  16              	.Ltext0:
  17              		.cfi_sections	.debug_frame
  18              		.file 1 "../../init/init.c"
  19              		.section	.text.SystemClock_Config,"ax",%progbits
  20              		.align	1
  21              		.global	SystemClock_Config
  22              		.syntax unified
  23              		.thumb
  24              		.thumb_func
  26              	SystemClock_Config:
  27              	.LFB333:
   1:../../init/init.c **** /*******************************************************************************
   2:../../init/init.c **** *                                                                              *
   3:../../init/init.c **** * FILE:                                                                        *
   4:../../init/init.c **** * 		init.c                                                                 *
   5:../../init/init.c **** *                                                                              *
   6:../../init/init.c **** * DESCRIPTION:                                                                 *
   7:../../init/init.c **** * 		Contains initialization routines for MCU core and peripherals          *
   8:../../init/init.c **** *                                                                              *
   9:../../init/init.c **** *******************************************************************************/
  10:../../init/init.c **** 
  11:../../init/init.c **** 
  12:../../init/init.c **** /*------------------------------------------------------------------------------
  13:../../init/init.c ****  Standard Includes                                                              
  14:../../init/init.c **** ------------------------------------------------------------------------------*/
  15:../../init/init.c **** 
  16:../../init/init.c **** 
  17:../../init/init.c **** /*------------------------------------------------------------------------------
  18:../../init/init.c ****  Project Includes                                                               
  19:../../init/init.c **** ------------------------------------------------------------------------------*/
  20:../../init/init.c **** #include "sdr_pin_defines_L0002.h"
  21:../../init/init.c **** #include "main.h"
  22:../../init/init.c **** #include "init.h"
  23:../../init/init.c **** 
  24:../../init/init.c **** 
  25:../../init/init.c **** /*------------------------------------------------------------------------------
  26:../../init/init.c ****  Global Variables 
  27:../../init/init.c **** ------------------------------------------------------------------------------*/
  28:../../init/init.c **** extern ADC_HandleTypeDef  hadc1;  /* Pressure transducer ADC handle */
  29:../../init/init.c **** extern ADC_HandleTypeDef  hadc2;  /* Load cell ADC handle           */
  30:../../init/init.c **** extern I2C_HandleTypeDef  hi2c1;  /* Thermocouple I2C handle        */
  31:../../init/init.c **** extern SPI_HandleTypeDef  hspi2;  /* Flash SPI handle               */
ARM GAS  /tmp/ccta2Cae.s 			page 2


  32:../../init/init.c **** extern UART_HandleTypeDef huart1; /* USB UART handler struct        */
  33:../../init/init.c **** 
  34:../../init/init.c **** 
  35:../../init/init.c **** /*------------------------------------------------------------------------------
  36:../../init/init.c ****  Procedures 
  37:../../init/init.c **** ------------------------------------------------------------------------------*/
  38:../../init/init.c **** 
  39:../../init/init.c **** 
  40:../../init/init.c **** /*******************************************************************************
  41:../../init/init.c **** *                                                                              *
  42:../../init/init.c **** * PROCEDURE:                                                                   *
  43:../../init/init.c **** * 		SystemClock_Config                                                     *
  44:../../init/init.c **** *                                                                              *
  45:../../init/init.c **** * DESCRIPTION:                                                                 *
  46:../../init/init.c **** * 		Initializes the microcontroller clock. Enables peripheral clocks and   *
  47:../../init/init.c **** *       sets prescalers                                                        *
  48:../../init/init.c **** *                                                                              *
  49:../../init/init.c **** *******************************************************************************/
  50:../../init/init.c **** void SystemClock_Config
  51:../../init/init.c **** 	(
  52:../../init/init.c **** 	void
  53:../../init/init.c **** 	)
  54:../../init/init.c **** {
  28              		.loc 1 54 1 view -0
  29              		.cfi_startproc
  30              		@ args = 0, pretend = 0, frame = 112
  31              		@ frame_needed = 0, uses_anonymous_args = 0
  32 0000 00B5     		push	{lr}
  33              	.LCFI0:
  34              		.cfi_def_cfa_offset 4
  35              		.cfi_offset 14, -4
  36 0002 9DB0     		sub	sp, sp, #116
  37              	.LCFI1:
  38              		.cfi_def_cfa_offset 120
  55:../../init/init.c **** /* RCC Initialization Structs */
  56:../../init/init.c **** RCC_OscInitTypeDef RCC_OscInitStruct = {0};
  39              		.loc 1 56 1 view .LVU1
  40              		.loc 1 56 20 is_stmt 0 view .LVU2
  41 0004 4C22     		movs	r2, #76
  42 0006 0021     		movs	r1, #0
  43 0008 09A8     		add	r0, sp, #36
  44 000a FFF7FEFF 		bl	memset
  45              	.LVL0:
  57:../../init/init.c **** RCC_ClkInitTypeDef RCC_ClkInitStruct = {0};
  46              		.loc 1 57 1 is_stmt 1 view .LVU3
  47              		.loc 1 57 20 is_stmt 0 view .LVU4
  48 000e 2022     		movs	r2, #32
  49 0010 0021     		movs	r1, #0
  50 0012 01A8     		add	r0, sp, #4
  51 0014 FFF7FEFF 		bl	memset
  52              	.LVL1:
  58:../../init/init.c **** 
  59:../../init/init.c **** /* Supply configuration update enable */
  60:../../init/init.c **** HAL_PWREx_ConfigSupply( PWR_LDO_SUPPLY );
  53              		.loc 1 60 1 is_stmt 1 view .LVU5
  54 0018 0220     		movs	r0, #2
  55 001a FFF7FEFF 		bl	HAL_PWREx_ConfigSupply
ARM GAS  /tmp/ccta2Cae.s 			page 3


  56              	.LVL2:
  61:../../init/init.c **** 
  62:../../init/init.c **** /* Configure the main internal regulator output voltage */
  63:../../init/init.c **** __HAL_PWR_VOLTAGESCALING_CONFIG( PWR_REGULATOR_VOLTAGE_SCALE0 );
  57              		.loc 1 63 1 view .LVU6
  58              	.LBB2:
  59              		.loc 1 63 1 view .LVU7
  60 001e 0023     		movs	r3, #0
  61 0020 0093     		str	r3, [sp]
  62              		.loc 1 63 1 view .LVU8
  63              		.loc 1 63 1 view .LVU9
  64 0022 264B     		ldr	r3, .L8
  65 0024 9A69     		ldr	r2, [r3, #24]
  66 0026 42F44042 		orr	r2, r2, #49152
  67 002a 9A61     		str	r2, [r3, #24]
  68              		.loc 1 63 1 view .LVU10
  69 002c 9B69     		ldr	r3, [r3, #24]
  70 002e 03F44043 		and	r3, r3, #49152
  71 0032 0093     		str	r3, [sp]
  72              		.loc 1 63 1 view .LVU11
  73 0034 224B     		ldr	r3, .L8+4
  74 0036 DA6A     		ldr	r2, [r3, #44]
  75 0038 42F00102 		orr	r2, r2, #1
  76 003c DA62     		str	r2, [r3, #44]
  77              		.loc 1 63 1 view .LVU12
  78 003e DB6A     		ldr	r3, [r3, #44]
  79 0040 03F00103 		and	r3, r3, #1
  80 0044 0093     		str	r3, [sp]
  81              		.loc 1 63 1 view .LVU13
  82 0046 009B     		ldr	r3, [sp]
  83              	.LBE2:
  84              		.loc 1 63 1 view .LVU14
  64:../../init/init.c **** 
  65:../../init/init.c **** while( !__HAL_PWR_GET_FLAG(PWR_FLAG_VOSRDY) ) 
  85              		.loc 1 65 1 view .LVU15
  86              	.L2:
  66:../../init/init.c **** 	{
  67:../../init/init.c **** 	/* Wait for PWR_FLAG_VOSRDY flag */
  68:../../init/init.c **** 	}
  87              		.loc 1 68 2 discriminator 1 view .LVU16
  65:../../init/init.c **** 	{
  88              		.loc 1 65 8 discriminator 1 view .LVU17
  65:../../init/init.c **** 	{
  89              		.loc 1 65 9 is_stmt 0 discriminator 1 view .LVU18
  90 0048 1C4B     		ldr	r3, .L8
  91 004a 9B69     		ldr	r3, [r3, #24]
  65:../../init/init.c **** 	{
  92              		.loc 1 65 8 discriminator 1 view .LVU19
  93 004c 13F4005F 		tst	r3, #8192
  94 0050 FAD0     		beq	.L2
  69:../../init/init.c **** 
  70:../../init/init.c **** /* Initialize the RCC Oscillators according to the specified parameters
  71:../../init/init.c **** * in the RCC_OscInitTypeDef structure. */
  72:../../init/init.c **** RCC_OscInitStruct.OscillatorType = RCC_OSCILLATORTYPE_HSE;
  95              		.loc 1 72 1 is_stmt 1 view .LVU20
  96              		.loc 1 72 34 is_stmt 0 view .LVU21
  97 0052 0123     		movs	r3, #1
ARM GAS  /tmp/ccta2Cae.s 			page 4


  98 0054 0993     		str	r3, [sp, #36]
  73:../../init/init.c **** RCC_OscInitStruct.HSEState       = RCC_HSE_ON;
  99              		.loc 1 73 1 is_stmt 1 view .LVU22
 100              		.loc 1 73 34 is_stmt 0 view .LVU23
 101 0056 4FF48033 		mov	r3, #65536
 102 005a 0A93     		str	r3, [sp, #40]
  74:../../init/init.c **** RCC_OscInitStruct.PLL.PLLState   = RCC_PLL_ON;
 103              		.loc 1 74 1 is_stmt 1 view .LVU24
 104              		.loc 1 74 34 is_stmt 0 view .LVU25
 105 005c 0223     		movs	r3, #2
 106 005e 1293     		str	r3, [sp, #72]
  75:../../init/init.c **** RCC_OscInitStruct.PLL.PLLSource  = RCC_PLLSOURCE_HSE;
 107              		.loc 1 75 1 is_stmt 1 view .LVU26
 108              		.loc 1 75 34 is_stmt 0 view .LVU27
 109 0060 1393     		str	r3, [sp, #76]
  76:../../init/init.c **** RCC_OscInitStruct.PLL.PLLM       = 2;
 110              		.loc 1 76 1 is_stmt 1 view .LVU28
 111              		.loc 1 76 34 is_stmt 0 view .LVU29
 112 0062 1493     		str	r3, [sp, #80]
  77:../../init/init.c **** RCC_OscInitStruct.PLL.PLLN       = 80;
 113              		.loc 1 77 1 is_stmt 1 view .LVU30
 114              		.loc 1 77 34 is_stmt 0 view .LVU31
 115 0064 5022     		movs	r2, #80
 116 0066 1592     		str	r2, [sp, #84]
  78:../../init/init.c **** RCC_OscInitStruct.PLL.PLLP       = 2;
 117              		.loc 1 78 1 is_stmt 1 view .LVU32
 118              		.loc 1 78 34 is_stmt 0 view .LVU33
 119 0068 1693     		str	r3, [sp, #88]
  79:../../init/init.c **** RCC_OscInitStruct.PLL.PLLQ       = 2;
 120              		.loc 1 79 1 is_stmt 1 view .LVU34
 121              		.loc 1 79 34 is_stmt 0 view .LVU35
 122 006a 1793     		str	r3, [sp, #92]
  80:../../init/init.c **** RCC_OscInitStruct.PLL.PLLR       = 2;
 123              		.loc 1 80 1 is_stmt 1 view .LVU36
 124              		.loc 1 80 34 is_stmt 0 view .LVU37
 125 006c 1893     		str	r3, [sp, #96]
  81:../../init/init.c **** RCC_OscInitStruct.PLL.PLLRGE     = RCC_PLL1VCIRANGE_3;
 126              		.loc 1 81 1 is_stmt 1 view .LVU38
 127              		.loc 1 81 34 is_stmt 0 view .LVU39
 128 006e 0C23     		movs	r3, #12
 129 0070 1993     		str	r3, [sp, #100]
  82:../../init/init.c **** RCC_OscInitStruct.PLL.PLLVCOSEL  = RCC_PLL1VCOWIDE;
 130              		.loc 1 82 1 is_stmt 1 view .LVU40
 131              		.loc 1 82 34 is_stmt 0 view .LVU41
 132 0072 0023     		movs	r3, #0
 133 0074 1A93     		str	r3, [sp, #104]
  83:../../init/init.c **** RCC_OscInitStruct.PLL.PLLFRACN   = 0;
 134              		.loc 1 83 1 is_stmt 1 view .LVU42
 135              		.loc 1 83 34 is_stmt 0 view .LVU43
 136 0076 1B93     		str	r3, [sp, #108]
  84:../../init/init.c **** if ( HAL_RCC_OscConfig( &RCC_OscInitStruct ) != HAL_OK )
 137              		.loc 1 84 1 is_stmt 1 view .LVU44
 138              		.loc 1 84 6 is_stmt 0 view .LVU45
 139 0078 09A8     		add	r0, sp, #36
 140 007a FFF7FEFF 		bl	HAL_RCC_OscConfig
 141              	.LVL3:
 142              		.loc 1 84 4 view .LVU46
ARM GAS  /tmp/ccta2Cae.s 			page 5


 143 007e B8B9     		cbnz	r0, .L6
 144              	.L3:
  85:../../init/init.c **** 	{
  86:../../init/init.c ****     Error_Handler();
  87:../../init/init.c **** 	}
  88:../../init/init.c **** else /* RCC Oscillator configuration is okay */
  89:../../init/init.c **** 	{
  90:../../init/init.c **** 	/* Do nothing */
  91:../../init/init.c **** 	}
 145              		.loc 1 91 2 is_stmt 1 view .LVU47
  92:../../init/init.c **** 
  93:../../init/init.c **** /* Initializes the CPU, AHB and APB buses clocks */
  94:../../init/init.c **** RCC_ClkInitStruct.ClockType      = RCC_CLOCKTYPE_HCLK|RCC_CLOCKTYPE_SYSCLK
 146              		.loc 1 94 1 view .LVU48
 147              		.loc 1 94 34 is_stmt 0 view .LVU49
 148 0080 3F23     		movs	r3, #63
 149 0082 0193     		str	r3, [sp, #4]
  95:../../init/init.c ****                                   |RCC_CLOCKTYPE_PCLK1|RCC_CLOCKTYPE_PCLK2
  96:../../init/init.c ****                                   |RCC_CLOCKTYPE_D3PCLK1|RCC_CLOCKTYPE_D1PCLK1;
  97:../../init/init.c **** RCC_ClkInitStruct.SYSCLKSource   = RCC_SYSCLKSOURCE_PLLCLK;
 150              		.loc 1 97 1 is_stmt 1 view .LVU50
 151              		.loc 1 97 34 is_stmt 0 view .LVU51
 152 0084 0323     		movs	r3, #3
 153 0086 0293     		str	r3, [sp, #8]
  98:../../init/init.c **** RCC_ClkInitStruct.SYSCLKDivider  = RCC_SYSCLK_DIV1;
 154              		.loc 1 98 1 is_stmt 1 view .LVU52
 155              		.loc 1 98 34 is_stmt 0 view .LVU53
 156 0088 0023     		movs	r3, #0
 157 008a 0393     		str	r3, [sp, #12]
  99:../../init/init.c **** RCC_ClkInitStruct.AHBCLKDivider  = RCC_HCLK_DIV2;
 158              		.loc 1 99 1 is_stmt 1 view .LVU54
 159              		.loc 1 99 34 is_stmt 0 view .LVU55
 160 008c 0823     		movs	r3, #8
 161 008e 0493     		str	r3, [sp, #16]
 100:../../init/init.c **** RCC_ClkInitStruct.APB3CLKDivider = RCC_APB3_DIV2;
 162              		.loc 1 100 1 is_stmt 1 view .LVU56
 163              		.loc 1 100 34 is_stmt 0 view .LVU57
 164 0090 4023     		movs	r3, #64
 165 0092 0593     		str	r3, [sp, #20]
 101:../../init/init.c **** RCC_ClkInitStruct.APB1CLKDivider = RCC_APB1_DIV2;
 166              		.loc 1 101 1 is_stmt 1 view .LVU58
 167              		.loc 1 101 34 is_stmt 0 view .LVU59
 168 0094 0693     		str	r3, [sp, #24]
 102:../../init/init.c **** RCC_ClkInitStruct.APB2CLKDivider = RCC_APB2_DIV2;
 169              		.loc 1 102 1 is_stmt 1 view .LVU60
 170              		.loc 1 102 34 is_stmt 0 view .LVU61
 171 0096 4FF48062 		mov	r2, #1024
 172 009a 0792     		str	r2, [sp, #28]
 103:../../init/init.c **** RCC_ClkInitStruct.APB4CLKDivider = RCC_APB4_DIV2;
 173              		.loc 1 103 1 is_stmt 1 view .LVU62
 174              		.loc 1 103 34 is_stmt 0 view .LVU63
 175 009c 0893     		str	r3, [sp, #32]
 104:../../init/init.c **** 
 105:../../init/init.c **** if ( HAL_RCC_ClockConfig( &RCC_ClkInitStruct, FLASH_LATENCY_4 ) != HAL_OK )
 176              		.loc 1 105 1 is_stmt 1 view .LVU64
 177              		.loc 1 105 6 is_stmt 0 view .LVU65
 178 009e 0421     		movs	r1, #4
ARM GAS  /tmp/ccta2Cae.s 			page 6


 179 00a0 0DEB0100 		add	r0, sp, r1
 180 00a4 FFF7FEFF 		bl	HAL_RCC_ClockConfig
 181              	.LVL4:
 182              		.loc 1 105 4 view .LVU66
 183 00a8 28B9     		cbnz	r0, .L7
 184              	.L1:
 106:../../init/init.c **** 	{
 107:../../init/init.c **** 	Error_Handler();
 108:../../init/init.c **** 	}
 109:../../init/init.c **** else /* RCC Configuration okay */
 110:../../init/init.c **** 	{
 111:../../init/init.c **** 	/* Do Nothing */
 112:../../init/init.c **** 	}
 113:../../init/init.c **** 
 114:../../init/init.c **** } /* SystemClock_Config */
 185              		.loc 1 114 1 view .LVU67
 186 00aa 1DB0     		add	sp, sp, #116
 187              	.LCFI2:
 188              		.cfi_remember_state
 189              		.cfi_def_cfa_offset 4
 190              		@ sp needed
 191 00ac 5DF804FB 		ldr	pc, [sp], #4
 192              	.L6:
 193              	.LCFI3:
 194              		.cfi_restore_state
 195              	.LBB3:
  86:../../init/init.c **** 	}
 196              		.loc 1 86 5 is_stmt 1 view .LVU68
 197 00b0 FFF7FEFF 		bl	Error_Handler
 198              	.LVL5:
 199              	.LBE3:
 200 00b4 E4E7     		b	.L3
 201              	.L7:
 202              	.LBB4:
 107:../../init/init.c **** 	}
 203              		.loc 1 107 2 view .LVU69
 204 00b6 FFF7FEFF 		bl	Error_Handler
 205              	.LVL6:
 206              	.LBE4:
 112:../../init/init.c **** 
 207              		.loc 1 112 2 view .LVU70
 208              		.loc 1 114 1 is_stmt 0 view .LVU71
 209 00ba F6E7     		b	.L1
 210              	.L9:
 211              		.align	2
 212              	.L8:
 213 00bc 00480258 		.word	1476544512
 214 00c0 00040058 		.word	1476396032
 215              		.cfi_endproc
 216              	.LFE333:
 218              		.section	.text.PeriphCommonClock_Config,"ax",%progbits
 219              		.align	1
 220              		.global	PeriphCommonClock_Config
 221              		.syntax unified
 222              		.thumb
 223              		.thumb_func
 225              	PeriphCommonClock_Config:
ARM GAS  /tmp/ccta2Cae.s 			page 7


 226              	.LFB334:
 115:../../init/init.c **** 
 116:../../init/init.c **** 
 117:../../init/init.c **** /*******************************************************************************
 118:../../init/init.c **** *                                                                              *
 119:../../init/init.c **** * PROCEDURE:                                                                   *
 120:../../init/init.c **** * 		PeriphCommonClock_Config                                               *
 121:../../init/init.c **** *                                                                              *
 122:../../init/init.c **** * DESCRIPTION:                                                                 *
 123:../../init/init.c **** * 		Initializes the shared peripheral clocks.                              *
 124:../../init/init.c **** *                                                                              *
 125:../../init/init.c **** *******************************************************************************/
 126:../../init/init.c **** void PeriphCommonClock_Config
 127:../../init/init.c **** 	(
 128:../../init/init.c **** 	void
 129:../../init/init.c **** 	)
 130:../../init/init.c **** {
 227              		.loc 1 130 1 is_stmt 1 view -0
 228              		.cfi_startproc
 229              		@ args = 0, pretend = 0, frame = 192
 230              		@ frame_needed = 0, uses_anonymous_args = 0
 231 0000 00B5     		push	{lr}
 232              	.LCFI4:
 233              		.cfi_def_cfa_offset 4
 234              		.cfi_offset 14, -4
 235 0002 B1B0     		sub	sp, sp, #196
 236              	.LCFI5:
 237              		.cfi_def_cfa_offset 200
 131:../../init/init.c **** /* Init Structs */
 132:../../init/init.c **** RCC_PeriphCLKInitTypeDef PeriphClkInitStruct = {0};
 238              		.loc 1 132 1 view .LVU73
 239              		.loc 1 132 26 is_stmt 0 view .LVU74
 240 0004 BC22     		movs	r2, #188
 241 0006 0021     		movs	r1, #0
 242 0008 01A8     		add	r0, sp, #4
 243 000a FFF7FEFF 		bl	memset
 244              	.LVL7:
 133:../../init/init.c **** 
 134:../../init/init.c **** /* Initializes the peripherals clock */
 135:../../init/init.c **** PeriphClkInitStruct.PeriphClockSelection = RCC_PERIPHCLK_ADC;
 245              		.loc 1 135 1 is_stmt 1 view .LVU75
 246              		.loc 1 135 42 is_stmt 0 view .LVU76
 247 000e 4FF40023 		mov	r3, #524288
 248 0012 0193     		str	r3, [sp, #4]
 136:../../init/init.c **** PeriphClkInitStruct.PLL2.PLL2M           = 2;
 249              		.loc 1 136 1 is_stmt 1 view .LVU77
 250              		.loc 1 136 42 is_stmt 0 view .LVU78
 251 0014 0223     		movs	r3, #2
 252 0016 0293     		str	r3, [sp, #8]
 137:../../init/init.c **** PeriphClkInitStruct.PLL2.PLL2N           = 16;
 253              		.loc 1 137 1 is_stmt 1 view .LVU79
 254              		.loc 1 137 42 is_stmt 0 view .LVU80
 255 0018 1022     		movs	r2, #16
 256 001a 0392     		str	r2, [sp, #12]
 138:../../init/init.c **** PeriphClkInitStruct.PLL2.PLL2P           = 4;
 257              		.loc 1 138 1 is_stmt 1 view .LVU81
 258              		.loc 1 138 42 is_stmt 0 view .LVU82
ARM GAS  /tmp/ccta2Cae.s 			page 8


 259 001c 0422     		movs	r2, #4
 260 001e 0492     		str	r2, [sp, #16]
 139:../../init/init.c **** PeriphClkInitStruct.PLL2.PLL2Q           = 2;
 261              		.loc 1 139 1 is_stmt 1 view .LVU83
 262              		.loc 1 139 42 is_stmt 0 view .LVU84
 263 0020 0593     		str	r3, [sp, #20]
 140:../../init/init.c **** PeriphClkInitStruct.PLL2.PLL2R           = 2;
 264              		.loc 1 140 1 is_stmt 1 view .LVU85
 265              		.loc 1 140 42 is_stmt 0 view .LVU86
 266 0022 0693     		str	r3, [sp, #24]
 141:../../init/init.c **** PeriphClkInitStruct.PLL2.PLL2RGE         = RCC_PLL2VCIRANGE_3;
 267              		.loc 1 141 1 is_stmt 1 view .LVU87
 268              		.loc 1 141 42 is_stmt 0 view .LVU88
 269 0024 C023     		movs	r3, #192
 270 0026 0793     		str	r3, [sp, #28]
 142:../../init/init.c **** PeriphClkInitStruct.PLL2.PLL2VCOSEL      = RCC_PLL2VCOWIDE;
 271              		.loc 1 142 1 is_stmt 1 view .LVU89
 143:../../init/init.c **** PeriphClkInitStruct.PLL2.PLL2FRACN       = 0;
 272              		.loc 1 143 1 view .LVU90
 144:../../init/init.c **** PeriphClkInitStruct.AdcClockSelection    = RCC_ADCCLKSOURCE_PLL2;
 273              		.loc 1 144 1 view .LVU91
 145:../../init/init.c **** if ( HAL_RCCEx_PeriphCLKConfig( &PeriphClkInitStruct ) != HAL_OK )
 274              		.loc 1 145 1 view .LVU92
 275              		.loc 1 145 6 is_stmt 0 view .LVU93
 276 0028 0DEB0200 		add	r0, sp, r2
 277 002c FFF7FEFF 		bl	HAL_RCCEx_PeriphCLKConfig
 278              	.LVL8:
 279              		.loc 1 145 4 view .LVU94
 280 0030 10B9     		cbnz	r0, .L13
 281              	.L10:
 146:../../init/init.c **** 	{
 147:../../init/init.c **** 	Error_Handler();
 148:../../init/init.c **** 	}
 149:../../init/init.c **** } /* PeriphCommonClock_Config */
 282              		.loc 1 149 1 view .LVU95
 283 0032 31B0     		add	sp, sp, #196
 284              	.LCFI6:
 285              		.cfi_remember_state
 286              		.cfi_def_cfa_offset 4
 287              		@ sp needed
 288 0034 5DF804FB 		ldr	pc, [sp], #4
 289              	.L13:
 290              	.LCFI7:
 291              		.cfi_restore_state
 292              	.LBB5:
 147:../../init/init.c **** 	}
 293              		.loc 1 147 2 is_stmt 1 view .LVU96
 294 0038 FFF7FEFF 		bl	Error_Handler
 295              	.LVL9:
 296              	.LBE5:
 297              		.loc 1 149 1 is_stmt 0 view .LVU97
 298 003c F9E7     		b	.L10
 299              		.cfi_endproc
 300              	.LFE334:
 302              		.section	.text.PRESSURE_ADC_Init,"ax",%progbits
 303              		.align	1
 304              		.global	PRESSURE_ADC_Init
ARM GAS  /tmp/ccta2Cae.s 			page 9


 305              		.syntax unified
 306              		.thumb
 307              		.thumb_func
 309              	PRESSURE_ADC_Init:
 310              	.LFB335:
 150:../../init/init.c **** 
 151:../../init/init.c **** 
 152:../../init/init.c **** /*******************************************************************************
 153:../../init/init.c **** *                                                                              *
 154:../../init/init.c **** * PROCEDURE:                                                                   *
 155:../../init/init.c **** * 		PRESSURE_ADC_Init                                                      *
 156:../../init/init.c **** *                                                                              *
 157:../../init/init.c **** * DESCRIPTION:                                                                 *
 158:../../init/init.c **** * 		Initializes the MCU ADC for use with pressure transducers              *
 159:../../init/init.c **** *                                                                              *
 160:../../init/init.c **** *******************************************************************************/
 161:../../init/init.c **** void PRESSURE_ADC_Init
 162:../../init/init.c **** 	(
 163:../../init/init.c ****     void
 164:../../init/init.c ****     )
 165:../../init/init.c **** {
 311              		.loc 1 165 1 is_stmt 1 view -0
 312              		.cfi_startproc
 313              		@ args = 0, pretend = 0, frame = 40
 314              		@ frame_needed = 0, uses_anonymous_args = 0
 315 0000 00B5     		push	{lr}
 316              	.LCFI8:
 317              		.cfi_def_cfa_offset 4
 318              		.cfi_offset 14, -4
 319 0002 8BB0     		sub	sp, sp, #44
 320              	.LCFI9:
 321              		.cfi_def_cfa_offset 48
 166:../../init/init.c **** 
 167:../../init/init.c **** /* Initialize config structs */
 168:../../init/init.c **** ADC_MultiModeTypeDef   multimode = {0};
 322              		.loc 1 168 1 view .LVU99
 323              		.loc 1 168 24 is_stmt 0 view .LVU100
 324 0004 0023     		movs	r3, #0
 325 0006 0793     		str	r3, [sp, #28]
 326 0008 0893     		str	r3, [sp, #32]
 327 000a 0993     		str	r3, [sp, #36]
 169:../../init/init.c **** ADC_ChannelConfTypeDef sConfig   = {0};
 328              		.loc 1 169 1 is_stmt 1 view .LVU101
 329              		.loc 1 169 24 is_stmt 0 view .LVU102
 330 000c 0093     		str	r3, [sp]
 331 000e 0193     		str	r3, [sp, #4]
 332 0010 0293     		str	r3, [sp, #8]
 333 0012 0393     		str	r3, [sp, #12]
 334 0014 0493     		str	r3, [sp, #16]
 335 0016 0593     		str	r3, [sp, #20]
 336 0018 0693     		str	r3, [sp, #24]
 170:../../init/init.c **** 
 171:../../init/init.c **** /* Configuration settings */
 172:../../init/init.c **** hadc1.Instance                      = ADC1;
 337              		.loc 1 172 1 is_stmt 1 view .LVU103
 338              		.loc 1 172 37 is_stmt 0 view .LVU104
 339 001a 1E48     		ldr	r0, .L22
ARM GAS  /tmp/ccta2Cae.s 			page 10


 340 001c 1E4A     		ldr	r2, .L22+4
 341 001e 0260     		str	r2, [r0]
 173:../../init/init.c **** hadc1.Init.ClockPrescaler           = ADC_CLOCK_ASYNC_DIV1;
 342              		.loc 1 173 1 is_stmt 1 view .LVU105
 343              		.loc 1 173 37 is_stmt 0 view .LVU106
 344 0020 4360     		str	r3, [r0, #4]
 174:../../init/init.c **** hadc1.Init.Resolution               = ADC_RESOLUTION_16B;
 345              		.loc 1 174 1 is_stmt 1 view .LVU107
 346              		.loc 1 174 37 is_stmt 0 view .LVU108
 347 0022 8360     		str	r3, [r0, #8]
 175:../../init/init.c **** hadc1.Init.ScanConvMode             = ADC_SCAN_DISABLE;
 348              		.loc 1 175 1 is_stmt 1 view .LVU109
 349              		.loc 1 175 37 is_stmt 0 view .LVU110
 350 0024 C360     		str	r3, [r0, #12]
 176:../../init/init.c **** hadc1.Init.EOCSelection             = ADC_EOC_SINGLE_CONV;
 351              		.loc 1 176 1 is_stmt 1 view .LVU111
 352              		.loc 1 176 37 is_stmt 0 view .LVU112
 353 0026 0422     		movs	r2, #4
 354 0028 0261     		str	r2, [r0, #16]
 177:../../init/init.c **** hadc1.Init.LowPowerAutoWait         = DISABLE;
 355              		.loc 1 177 1 is_stmt 1 view .LVU113
 356              		.loc 1 177 37 is_stmt 0 view .LVU114
 357 002a 0375     		strb	r3, [r0, #20]
 178:../../init/init.c **** hadc1.Init.ContinuousConvMode       = DISABLE;
 358              		.loc 1 178 1 is_stmt 1 view .LVU115
 359              		.loc 1 178 37 is_stmt 0 view .LVU116
 360 002c 4375     		strb	r3, [r0, #21]
 179:../../init/init.c **** hadc1.Init.NbrOfConversion          = 1;
 361              		.loc 1 179 1 is_stmt 1 view .LVU117
 362              		.loc 1 179 37 is_stmt 0 view .LVU118
 363 002e 0122     		movs	r2, #1
 364 0030 8261     		str	r2, [r0, #24]
 180:../../init/init.c **** hadc1.Init.DiscontinuousConvMode    = DISABLE;
 365              		.loc 1 180 1 is_stmt 1 view .LVU119
 366              		.loc 1 180 37 is_stmt 0 view .LVU120
 367 0032 0377     		strb	r3, [r0, #28]
 181:../../init/init.c **** hadc1.Init.ExternalTrigConv         = ADC_SOFTWARE_START;
 368              		.loc 1 181 1 is_stmt 1 view .LVU121
 369              		.loc 1 181 37 is_stmt 0 view .LVU122
 370 0034 4362     		str	r3, [r0, #36]
 182:../../init/init.c **** hadc1.Init.ExternalTrigConvEdge     = ADC_EXTERNALTRIGCONVEDGE_NONE;
 371              		.loc 1 182 1 is_stmt 1 view .LVU123
 372              		.loc 1 182 37 is_stmt 0 view .LVU124
 373 0036 8362     		str	r3, [r0, #40]
 183:../../init/init.c **** hadc1.Init.ConversionDataManagement = ADC_CONVERSIONDATA_DR;
 374              		.loc 1 183 1 is_stmt 1 view .LVU125
 375              		.loc 1 183 37 is_stmt 0 view .LVU126
 376 0038 C362     		str	r3, [r0, #44]
 184:../../init/init.c **** hadc1.Init.Overrun                  = ADC_OVR_DATA_PRESERVED;
 377              		.loc 1 184 1 is_stmt 1 view .LVU127
 378              		.loc 1 184 37 is_stmt 0 view .LVU128
 379 003a 0363     		str	r3, [r0, #48]
 185:../../init/init.c **** hadc1.Init.LeftBitShift             = ADC_LEFTBITSHIFT_NONE;
 380              		.loc 1 185 1 is_stmt 1 view .LVU129
 381              		.loc 1 185 37 is_stmt 0 view .LVU130
 382 003c 4363     		str	r3, [r0, #52]
 186:../../init/init.c **** hadc1.Init.OversamplingMode         = DISABLE;
ARM GAS  /tmp/ccta2Cae.s 			page 11


 383              		.loc 1 186 1 is_stmt 1 view .LVU131
 384              		.loc 1 186 37 is_stmt 0 view .LVU132
 385 003e 80F83830 		strb	r3, [r0, #56]
 187:../../init/init.c **** 
 188:../../init/init.c **** /* Call MSPinit function to configure ADC registers */
 189:../../init/init.c **** if ( HAL_ADC_Init( &hadc1 ) != HAL_OK )
 386              		.loc 1 189 1 is_stmt 1 view .LVU133
 387              		.loc 1 189 6 is_stmt 0 view .LVU134
 388 0042 FFF7FEFF 		bl	HAL_ADC_Init
 389              	.LVL10:
 390              		.loc 1 189 4 view .LVU135
 391 0046 E0B9     		cbnz	r0, .L19
 392              	.L15:
 190:../../init/init.c **** 	{
 191:../../init/init.c **** 	Error_Handler();
 192:../../init/init.c **** 	}
 193:../../init/init.c **** else
 194:../../init/init.c **** 	{
 195:../../init/init.c ****     /* ADC config okay, do nothing */
 196:../../init/init.c ****     }
 393              		.loc 1 196 5 is_stmt 1 view .LVU136
 197:../../init/init.c **** 
 198:../../init/init.c **** /* Configure the ADC multi-mode */
 199:../../init/init.c **** multimode.Mode = ADC_MODE_INDEPENDENT;
 394              		.loc 1 199 1 view .LVU137
 395              		.loc 1 199 16 is_stmt 0 view .LVU138
 396 0048 0023     		movs	r3, #0
 397 004a 0793     		str	r3, [sp, #28]
 200:../../init/init.c **** if (HAL_ADCEx_MultiModeConfigChannel(&hadc1, &multimode) != HAL_OK)
 398              		.loc 1 200 1 is_stmt 1 view .LVU139
 399              		.loc 1 200 5 is_stmt 0 view .LVU140
 400 004c 07A9     		add	r1, sp, #28
 401 004e 1148     		ldr	r0, .L22
 402 0050 FFF7FEFF 		bl	HAL_ADCEx_MultiModeConfigChannel
 403              	.LVL11:
 404              		.loc 1 200 4 view .LVU141
 405 0054 C0B9     		cbnz	r0, .L20
 406              	.L16:
 201:../../init/init.c **** 	{
 202:../../init/init.c **** 	Error_Handler();
 203:../../init/init.c **** 	}
 204:../../init/init.c **** else
 205:../../init/init.c **** 	{
 206:../../init/init.c ****     /* multi-mode configuration okay, no nothing */
 207:../../init/init.c ****     }
 407              		.loc 1 207 5 is_stmt 1 view .LVU142
 208:../../init/init.c **** 
 209:../../init/init.c **** /* Configure Regular Channel */
 210:../../init/init.c **** sConfig.Channel                = ADC_CHANNEL_10;
 408              		.loc 1 210 1 view .LVU143
 409              		.loc 1 210 32 is_stmt 0 view .LVU144
 410 0056 114B     		ldr	r3, .L22+8
 411 0058 0093     		str	r3, [sp]
 211:../../init/init.c **** sConfig.Rank                   = ADC_REGULAR_RANK_1;
 412              		.loc 1 211 1 is_stmt 1 view .LVU145
 413              		.loc 1 211 32 is_stmt 0 view .LVU146
 414 005a 0623     		movs	r3, #6
ARM GAS  /tmp/ccta2Cae.s 			page 12


 415 005c 0193     		str	r3, [sp, #4]
 212:../../init/init.c **** sConfig.SamplingTime           = ADC_SAMPLETIME_1CYCLE_5;
 416              		.loc 1 212 1 is_stmt 1 view .LVU147
 417              		.loc 1 212 32 is_stmt 0 view .LVU148
 418 005e 0023     		movs	r3, #0
 419 0060 0293     		str	r3, [sp, #8]
 213:../../init/init.c **** sConfig.SingleDiff             = ADC_SINGLE_ENDED;
 420              		.loc 1 213 1 is_stmt 1 view .LVU149
 421              		.loc 1 213 32 is_stmt 0 view .LVU150
 422 0062 40F2FF72 		movw	r2, #2047
 423 0066 0392     		str	r2, [sp, #12]
 214:../../init/init.c **** sConfig.OffsetNumber           = ADC_OFFSET_NONE;
 424              		.loc 1 214 1 is_stmt 1 view .LVU151
 425              		.loc 1 214 32 is_stmt 0 view .LVU152
 426 0068 0422     		movs	r2, #4
 427 006a 0492     		str	r2, [sp, #16]
 215:../../init/init.c **** sConfig.Offset                 = 0;
 428              		.loc 1 215 1 is_stmt 1 view .LVU153
 429              		.loc 1 215 32 is_stmt 0 view .LVU154
 430 006c 0593     		str	r3, [sp, #20]
 216:../../init/init.c **** sConfig.OffsetSignedSaturation = DISABLE;
 431              		.loc 1 216 1 is_stmt 1 view .LVU155
 432              		.loc 1 216 32 is_stmt 0 view .LVU156
 433 006e 8DF81930 		strb	r3, [sp, #25]
 217:../../init/init.c **** if (HAL_ADC_ConfigChannel(&hadc1, &sConfig) != HAL_OK)
 434              		.loc 1 217 1 is_stmt 1 view .LVU157
 435              		.loc 1 217 5 is_stmt 0 view .LVU158
 436 0072 6946     		mov	r1, sp
 437 0074 0748     		ldr	r0, .L22
 438 0076 FFF7FEFF 		bl	HAL_ADC_ConfigChannel
 439              	.LVL12:
 440              		.loc 1 217 4 view .LVU159
 441 007a 40B9     		cbnz	r0, .L21
 442              	.L14:
 218:../../init/init.c **** 	{
 219:../../init/init.c **** 	Error_Handler();
 220:../../init/init.c **** 	}
 221:../../init/init.c **** else
 222:../../init/init.c **** 	{
 223:../../init/init.c ****     /* ADC channel configuration okay, do nothing */
 224:../../init/init.c ****     }
 225:../../init/init.c **** 
 226:../../init/init.c **** } /* PRESSURE_ADC_Init */
 443              		.loc 1 226 1 view .LVU160
 444 007c 0BB0     		add	sp, sp, #44
 445              	.LCFI10:
 446              		.cfi_remember_state
 447              		.cfi_def_cfa_offset 4
 448              		@ sp needed
 449 007e 5DF804FB 		ldr	pc, [sp], #4
 450              	.L19:
 451              	.LCFI11:
 452              		.cfi_restore_state
 453              	.LBB6:
 191:../../init/init.c **** 	}
 454              		.loc 1 191 2 is_stmt 1 view .LVU161
 455 0082 FFF7FEFF 		bl	Error_Handler
ARM GAS  /tmp/ccta2Cae.s 			page 13


 456              	.LVL13:
 457              	.LBE6:
 458 0086 DFE7     		b	.L15
 459              	.L20:
 460              	.LBB7:
 202:../../init/init.c **** 	}
 461              		.loc 1 202 2 view .LVU162
 462 0088 FFF7FEFF 		bl	Error_Handler
 463              	.LVL14:
 464              	.LBE7:
 465 008c E3E7     		b	.L16
 466              	.L21:
 467              	.LBB8:
 219:../../init/init.c **** 	}
 468              		.loc 1 219 2 view .LVU163
 469 008e FFF7FEFF 		bl	Error_Handler
 470              	.LVL15:
 471              	.LBE8:
 224:../../init/init.c **** 
 472              		.loc 1 224 5 view .LVU164
 473              		.loc 1 226 1 is_stmt 0 view .LVU165
 474 0092 F3E7     		b	.L14
 475              	.L23:
 476              		.align	2
 477              	.L22:
 478 0094 00000000 		.word	hadc1
 479 0098 00200240 		.word	1073881088
 480 009c 0004002A 		.word	704644096
 481              		.cfi_endproc
 482              	.LFE335:
 484              		.section	.text.LOADCELL_ADC_Init,"ax",%progbits
 485              		.align	1
 486              		.global	LOADCELL_ADC_Init
 487              		.syntax unified
 488              		.thumb
 489              		.thumb_func
 491              	LOADCELL_ADC_Init:
 492              	.LFB336:
 227:../../init/init.c **** 
 228:../../init/init.c **** 
 229:../../init/init.c **** 
 230:../../init/init.c **** /*******************************************************************************
 231:../../init/init.c **** *                                                                              *
 232:../../init/init.c **** * PROCEDURE:                                                                   *
 233:../../init/init.c **** * 		LOADCELL_ADC_Init                                                      *
 234:../../init/init.c **** *                                                                              *
 235:../../init/init.c **** * DESCRIPTION:                                                                 *
 236:../../init/init.c **** * 		Initializes the MCU ADC for use with the load cell                     *
 237:../../init/init.c **** *                                                                              *
 238:../../init/init.c **** *******************************************************************************/
 239:../../init/init.c **** void LOADCELL_ADC_Init 
 240:../../init/init.c **** 	(
 241:../../init/init.c **** 	void
 242:../../init/init.c **** 	)
 243:../../init/init.c **** {
 493              		.loc 1 243 1 is_stmt 1 view -0
 494              		.cfi_startproc
ARM GAS  /tmp/ccta2Cae.s 			page 14


 495              		@ args = 0, pretend = 0, frame = 32
 496              		@ frame_needed = 0, uses_anonymous_args = 0
 497 0000 00B5     		push	{lr}
 498              	.LCFI12:
 499              		.cfi_def_cfa_offset 4
 500              		.cfi_offset 14, -4
 501 0002 89B0     		sub	sp, sp, #36
 502              	.LCFI13:
 503              		.cfi_def_cfa_offset 40
 244:../../init/init.c **** /* Init Structs */
 245:../../init/init.c **** ADC_ChannelConfTypeDef sConfig = {0};
 504              		.loc 1 245 1 view .LVU167
 505              		.loc 1 245 24 is_stmt 0 view .LVU168
 506 0004 0023     		movs	r3, #0
 507 0006 0193     		str	r3, [sp, #4]
 508 0008 0293     		str	r3, [sp, #8]
 509 000a 0393     		str	r3, [sp, #12]
 510 000c 0493     		str	r3, [sp, #16]
 511 000e 0593     		str	r3, [sp, #20]
 512 0010 0693     		str	r3, [sp, #24]
 513 0012 0793     		str	r3, [sp, #28]
 246:../../init/init.c **** 
 247:../../init/init.c **** /* Common config */
 248:../../init/init.c **** hadc2.Instance                      = ADC2;
 514              		.loc 1 248 1 is_stmt 1 view .LVU169
 515              		.loc 1 248 37 is_stmt 0 view .LVU170
 516 0014 1948     		ldr	r0, .L30
 517 0016 1A4A     		ldr	r2, .L30+4
 518 0018 0260     		str	r2, [r0]
 249:../../init/init.c **** hadc2.Init.ClockPrescaler           = ADC_CLOCK_ASYNC_DIV1;
 519              		.loc 1 249 1 is_stmt 1 view .LVU171
 520              		.loc 1 249 37 is_stmt 0 view .LVU172
 521 001a 4360     		str	r3, [r0, #4]
 250:../../init/init.c **** hadc2.Init.Resolution               = ADC_RESOLUTION_16B;
 522              		.loc 1 250 1 is_stmt 1 view .LVU173
 523              		.loc 1 250 37 is_stmt 0 view .LVU174
 524 001c 8360     		str	r3, [r0, #8]
 251:../../init/init.c **** hadc2.Init.ScanConvMode             = ADC_SCAN_DISABLE;
 525              		.loc 1 251 1 is_stmt 1 view .LVU175
 526              		.loc 1 251 37 is_stmt 0 view .LVU176
 527 001e C360     		str	r3, [r0, #12]
 252:../../init/init.c **** hadc2.Init.EOCSelection             = ADC_EOC_SINGLE_CONV;
 528              		.loc 1 252 1 is_stmt 1 view .LVU177
 529              		.loc 1 252 37 is_stmt 0 view .LVU178
 530 0020 0422     		movs	r2, #4
 531 0022 0261     		str	r2, [r0, #16]
 253:../../init/init.c **** hadc2.Init.LowPowerAutoWait         = DISABLE;
 532              		.loc 1 253 1 is_stmt 1 view .LVU179
 533              		.loc 1 253 37 is_stmt 0 view .LVU180
 534 0024 0375     		strb	r3, [r0, #20]
 254:../../init/init.c **** hadc2.Init.ContinuousConvMode       = DISABLE;
 535              		.loc 1 254 1 is_stmt 1 view .LVU181
 536              		.loc 1 254 37 is_stmt 0 view .LVU182
 537 0026 4375     		strb	r3, [r0, #21]
 255:../../init/init.c **** hadc2.Init.NbrOfConversion          = 1;
 538              		.loc 1 255 1 is_stmt 1 view .LVU183
 539              		.loc 1 255 37 is_stmt 0 view .LVU184
ARM GAS  /tmp/ccta2Cae.s 			page 15


 540 0028 0122     		movs	r2, #1
 541 002a 8261     		str	r2, [r0, #24]
 256:../../init/init.c **** hadc2.Init.DiscontinuousConvMode    = DISABLE;
 542              		.loc 1 256 1 is_stmt 1 view .LVU185
 543              		.loc 1 256 37 is_stmt 0 view .LVU186
 544 002c 0377     		strb	r3, [r0, #28]
 257:../../init/init.c **** hadc2.Init.ExternalTrigConv         = ADC_SOFTWARE_START;
 545              		.loc 1 257 1 is_stmt 1 view .LVU187
 546              		.loc 1 257 37 is_stmt 0 view .LVU188
 547 002e 4362     		str	r3, [r0, #36]
 258:../../init/init.c **** hadc2.Init.ExternalTrigConvEdge     = ADC_EXTERNALTRIGCONVEDGE_NONE;
 548              		.loc 1 258 1 is_stmt 1 view .LVU189
 549              		.loc 1 258 37 is_stmt 0 view .LVU190
 550 0030 8362     		str	r3, [r0, #40]
 259:../../init/init.c **** hadc2.Init.ConversionDataManagement = ADC_CONVERSIONDATA_DR;
 551              		.loc 1 259 1 is_stmt 1 view .LVU191
 552              		.loc 1 259 37 is_stmt 0 view .LVU192
 553 0032 C362     		str	r3, [r0, #44]
 260:../../init/init.c **** hadc2.Init.Overrun                  = ADC_OVR_DATA_PRESERVED;
 554              		.loc 1 260 1 is_stmt 1 view .LVU193
 555              		.loc 1 260 37 is_stmt 0 view .LVU194
 556 0034 0363     		str	r3, [r0, #48]
 261:../../init/init.c **** hadc2.Init.LeftBitShift             = ADC_LEFTBITSHIFT_NONE;
 557              		.loc 1 261 1 is_stmt 1 view .LVU195
 558              		.loc 1 261 37 is_stmt 0 view .LVU196
 559 0036 4363     		str	r3, [r0, #52]
 262:../../init/init.c **** hadc2.Init.OversamplingMode         = DISABLE;
 560              		.loc 1 262 1 is_stmt 1 view .LVU197
 561              		.loc 1 262 37 is_stmt 0 view .LVU198
 562 0038 80F83830 		strb	r3, [r0, #56]
 263:../../init/init.c **** if ( HAL_ADC_Init( &hadc2 ) != HAL_OK )
 563              		.loc 1 263 1 is_stmt 1 view .LVU199
 564              		.loc 1 263 6 is_stmt 0 view .LVU200
 565 003c FFF7FEFF 		bl	HAL_ADC_Init
 566              	.LVL16:
 567              		.loc 1 263 4 view .LVU201
 568 0040 B0B9     		cbnz	r0, .L28
 569              	.L25:
 264:../../init/init.c **** 	{
 265:../../init/init.c **** 	Error_Handler();
 266:../../init/init.c **** 	}
 267:../../init/init.c **** 
 268:../../init/init.c **** /* Configure Regular Channel */
 269:../../init/init.c **** sConfig.Channel                     = ADC_CHANNEL_11;
 570              		.loc 1 269 1 is_stmt 1 view .LVU202
 571              		.loc 1 269 37 is_stmt 0 view .LVU203
 572 0042 104B     		ldr	r3, .L30+8
 573 0044 0193     		str	r3, [sp, #4]
 270:../../init/init.c **** sConfig.Rank                        = ADC_REGULAR_RANK_1;
 574              		.loc 1 270 1 is_stmt 1 view .LVU204
 575              		.loc 1 270 37 is_stmt 0 view .LVU205
 576 0046 0623     		movs	r3, #6
 577 0048 0293     		str	r3, [sp, #8]
 271:../../init/init.c **** sConfig.SamplingTime                = ADC_SAMPLETIME_1CYCLE_5;
 578              		.loc 1 271 1 is_stmt 1 view .LVU206
 579              		.loc 1 271 37 is_stmt 0 view .LVU207
 580 004a 0023     		movs	r3, #0
ARM GAS  /tmp/ccta2Cae.s 			page 16


 581 004c 0393     		str	r3, [sp, #12]
 272:../../init/init.c **** sConfig.SingleDiff                  = ADC_SINGLE_ENDED;
 582              		.loc 1 272 1 is_stmt 1 view .LVU208
 583              		.loc 1 272 37 is_stmt 0 view .LVU209
 584 004e 40F2FF72 		movw	r2, #2047
 585 0052 0492     		str	r2, [sp, #16]
 273:../../init/init.c **** sConfig.OffsetNumber                = ADC_OFFSET_NONE;
 586              		.loc 1 273 1 is_stmt 1 view .LVU210
 587              		.loc 1 273 37 is_stmt 0 view .LVU211
 588 0054 0422     		movs	r2, #4
 589 0056 0592     		str	r2, [sp, #20]
 274:../../init/init.c **** sConfig.Offset                      = 0;
 590              		.loc 1 274 1 is_stmt 1 view .LVU212
 591              		.loc 1 274 37 is_stmt 0 view .LVU213
 592 0058 0693     		str	r3, [sp, #24]
 275:../../init/init.c **** sConfig.OffsetSignedSaturation      = DISABLE;
 593              		.loc 1 275 1 is_stmt 1 view .LVU214
 594              		.loc 1 275 37 is_stmt 0 view .LVU215
 595 005a 8DF81D30 		strb	r3, [sp, #29]
 276:../../init/init.c **** if ( HAL_ADC_ConfigChannel( &hadc2, &sConfig ) != HAL_OK )
 596              		.loc 1 276 1 is_stmt 1 view .LVU216
 597              		.loc 1 276 6 is_stmt 0 view .LVU217
 598 005e 0DEB0201 		add	r1, sp, r2
 599 0062 0648     		ldr	r0, .L30
 600 0064 FFF7FEFF 		bl	HAL_ADC_ConfigChannel
 601              	.LVL17:
 602              		.loc 1 276 4 view .LVU218
 603 0068 28B9     		cbnz	r0, .L29
 604              	.L24:
 277:../../init/init.c **** 	{
 278:../../init/init.c **** 	Error_Handler();
 279:../../init/init.c **** 	}
 280:../../init/init.c **** 
 281:../../init/init.c **** } /* LOADCELL_ADC_Init */
 605              		.loc 1 281 1 view .LVU219
 606 006a 09B0     		add	sp, sp, #36
 607              	.LCFI14:
 608              		.cfi_remember_state
 609              		.cfi_def_cfa_offset 4
 610              		@ sp needed
 611 006c 5DF804FB 		ldr	pc, [sp], #4
 612              	.L28:
 613              	.LCFI15:
 614              		.cfi_restore_state
 615              	.LBB9:
 265:../../init/init.c **** 	}
 616              		.loc 1 265 2 is_stmt 1 view .LVU220
 617 0070 FFF7FEFF 		bl	Error_Handler
 618              	.LVL18:
 619 0074 E5E7     		b	.L25
 620              	.L29:
 621              	.LBE9:
 622              	.LBB10:
 278:../../init/init.c **** 	}
 623              		.loc 1 278 2 view .LVU221
 624 0076 FFF7FEFF 		bl	Error_Handler
 625              	.LVL19:
ARM GAS  /tmp/ccta2Cae.s 			page 17


 626              	.LBE10:
 627              		.loc 1 281 1 is_stmt 0 view .LVU222
 628 007a F6E7     		b	.L24
 629              	.L31:
 630              		.align	2
 631              	.L30:
 632 007c 00000000 		.word	hadc2
 633 0080 00210240 		.word	1073881344
 634 0084 0008302E 		.word	774899712
 635              		.cfi_endproc
 636              	.LFE336:
 638              		.section	.text.Thermocouple_I2C_Init,"ax",%progbits
 639              		.align	1
 640              		.global	Thermocouple_I2C_Init
 641              		.syntax unified
 642              		.thumb
 643              		.thumb_func
 645              	Thermocouple_I2C_Init:
 646              	.LFB337:
 282:../../init/init.c **** 
 283:../../init/init.c **** 
 284:../../init/init.c **** /*******************************************************************************
 285:../../init/init.c **** *                                                                              *
 286:../../init/init.c **** * PROCEDURE:                                                                   *
 287:../../init/init.c **** * 		Thermocouple_I2C_Init                                                  *
 288:../../init/init.c **** *                                                                              *
 289:../../init/init.c **** * DESCRIPTION:                                                                 *
 290:../../init/init.c **** * 		Initializes the I2C peripheral used for communication with the         *
 291:../../init/init.c **** *       thermocouple cold-junction compensation chip                           *
 292:../../init/init.c **** *                                                                              *
 293:../../init/init.c **** *******************************************************************************/
 294:../../init/init.c **** void Thermocouple_I2C_Init
 295:../../init/init.c **** 	(
 296:../../init/init.c **** 	void
 297:../../init/init.c **** 	)
 298:../../init/init.c **** {
 647              		.loc 1 298 1 is_stmt 1 view -0
 648              		.cfi_startproc
 649              		@ args = 0, pretend = 0, frame = 0
 650              		@ frame_needed = 0, uses_anonymous_args = 0
 651 0000 08B5     		push	{r3, lr}
 652              	.LCFI16:
 653              		.cfi_def_cfa_offset 8
 654              		.cfi_offset 3, -8
 655              		.cfi_offset 14, -4
 299:../../init/init.c **** /* Fill init struct */
 300:../../init/init.c **** hi2c1.Instance              = I2C1;
 656              		.loc 1 300 1 view .LVU224
 657              		.loc 1 300 29 is_stmt 0 view .LVU225
 658 0002 1548     		ldr	r0, .L40
 659 0004 154B     		ldr	r3, .L40+4
 660 0006 0360     		str	r3, [r0]
 301:../../init/init.c **** hi2c1.Init.Timing           = 0x307075B1;
 661              		.loc 1 301 1 is_stmt 1 view .LVU226
 662              		.loc 1 301 29 is_stmt 0 view .LVU227
 663 0008 A3F17863 		sub	r3, r3, #260046848
 664 000c A3F57D23 		sub	r3, r3, #1036288
ARM GAS  /tmp/ccta2Cae.s 			page 18


 665 0010 A3F64F63 		subw	r3, r3, #3663
 666 0014 4360     		str	r3, [r0, #4]
 302:../../init/init.c **** hi2c1.Init.OwnAddress1      = 0;
 667              		.loc 1 302 1 is_stmt 1 view .LVU228
 668              		.loc 1 302 29 is_stmt 0 view .LVU229
 669 0016 0023     		movs	r3, #0
 670 0018 8360     		str	r3, [r0, #8]
 303:../../init/init.c **** hi2c1.Init.AddressingMode   = I2C_ADDRESSINGMODE_7BIT;
 671              		.loc 1 303 1 is_stmt 1 view .LVU230
 672              		.loc 1 303 29 is_stmt 0 view .LVU231
 673 001a 0122     		movs	r2, #1
 674 001c C260     		str	r2, [r0, #12]
 304:../../init/init.c **** hi2c1.Init.DualAddressMode  = I2C_DUALADDRESS_DISABLE;
 675              		.loc 1 304 1 is_stmt 1 view .LVU232
 676              		.loc 1 304 29 is_stmt 0 view .LVU233
 677 001e 0361     		str	r3, [r0, #16]
 305:../../init/init.c **** hi2c1.Init.OwnAddress2      = 0;
 678              		.loc 1 305 1 is_stmt 1 view .LVU234
 679              		.loc 1 305 29 is_stmt 0 view .LVU235
 680 0020 4361     		str	r3, [r0, #20]
 306:../../init/init.c **** hi2c1.Init.OwnAddress2Masks = I2C_OA2_NOMASK;
 681              		.loc 1 306 1 is_stmt 1 view .LVU236
 682              		.loc 1 306 29 is_stmt 0 view .LVU237
 683 0022 8361     		str	r3, [r0, #24]
 307:../../init/init.c **** hi2c1.Init.GeneralCallMode  = I2C_GENERALCALL_DISABLE;
 684              		.loc 1 307 1 is_stmt 1 view .LVU238
 685              		.loc 1 307 29 is_stmt 0 view .LVU239
 686 0024 C361     		str	r3, [r0, #28]
 308:../../init/init.c **** hi2c1.Init.NoStretchMode    = I2C_NOSTRETCH_DISABLE;
 687              		.loc 1 308 1 is_stmt 1 view .LVU240
 688              		.loc 1 308 29 is_stmt 0 view .LVU241
 689 0026 0362     		str	r3, [r0, #32]
 309:../../init/init.c **** if ( HAL_I2C_Init( &hi2c1 ) != HAL_OK )
 690              		.loc 1 309 1 is_stmt 1 view .LVU242
 691              		.loc 1 309 6 is_stmt 0 view .LVU243
 692 0028 FFF7FEFF 		bl	HAL_I2C_Init
 693              	.LVL20:
 694              		.loc 1 309 4 view .LVU244
 695 002c 50B9     		cbnz	r0, .L37
 696              	.L33:
 310:../../init/init.c **** 	{
 311:../../init/init.c **** 	Error_Handler();
 312:../../init/init.c **** 	}
 313:../../init/init.c **** 
 314:../../init/init.c **** /* Configure Analogue filter */
 315:../../init/init.c **** if ( HAL_I2CEx_ConfigAnalogFilter( &hi2c1, I2C_ANALOGFILTER_ENABLE ) != HAL_OK )
 697              		.loc 1 315 1 is_stmt 1 view .LVU245
 698              		.loc 1 315 6 is_stmt 0 view .LVU246
 699 002e 0021     		movs	r1, #0
 700 0030 0948     		ldr	r0, .L40
 701 0032 FFF7FEFF 		bl	HAL_I2CEx_ConfigAnalogFilter
 702              	.LVL21:
 703              		.loc 1 315 4 view .LVU247
 704 0036 40B9     		cbnz	r0, .L38
 705              	.L34:
 316:../../init/init.c **** 	{
 317:../../init/init.c **** 	Error_Handler();
ARM GAS  /tmp/ccta2Cae.s 			page 19


 318:../../init/init.c **** 	}
 319:../../init/init.c **** 
 320:../../init/init.c **** /* Configure Digital filter */
 321:../../init/init.c **** if ( HAL_I2CEx_ConfigDigitalFilter( &hi2c1, 0 ) != HAL_OK )
 706              		.loc 1 321 1 is_stmt 1 view .LVU248
 707              		.loc 1 321 6 is_stmt 0 view .LVU249
 708 0038 0021     		movs	r1, #0
 709 003a 0748     		ldr	r0, .L40
 710 003c FFF7FEFF 		bl	HAL_I2CEx_ConfigDigitalFilter
 711              	.LVL22:
 712              		.loc 1 321 4 view .LVU250
 713 0040 30B9     		cbnz	r0, .L39
 714              	.L32:
 322:../../init/init.c **** 	{
 323:../../init/init.c **** 	Error_Handler();
 324:../../init/init.c **** 	}
 325:../../init/init.c **** } /* Thermocouple_I2C_Init */
 715              		.loc 1 325 1 view .LVU251
 716 0042 08BD     		pop	{r3, pc}
 717              	.L37:
 718              	.LBB11:
 311:../../init/init.c **** 	}
 719              		.loc 1 311 2 is_stmt 1 view .LVU252
 720 0044 FFF7FEFF 		bl	Error_Handler
 721              	.LVL23:
 722 0048 F1E7     		b	.L33
 723              	.L38:
 724              	.LBE11:
 725              	.LBB12:
 317:../../init/init.c **** 	}
 726              		.loc 1 317 2 view .LVU253
 727 004a FFF7FEFF 		bl	Error_Handler
 728              	.LVL24:
 729 004e F3E7     		b	.L34
 730              	.L39:
 731              	.LBE12:
 732              	.LBB13:
 323:../../init/init.c **** 	}
 733              		.loc 1 323 2 view .LVU254
 734 0050 FFF7FEFF 		bl	Error_Handler
 735              	.LVL25:
 736              	.LBE13:
 737              		.loc 1 325 1 is_stmt 0 view .LVU255
 738 0054 F5E7     		b	.L32
 739              	.L41:
 740 0056 00BF     		.align	2
 741              	.L40:
 742 0058 00000000 		.word	hi2c1
 743 005c 00540040 		.word	1073763328
 744              		.cfi_endproc
 745              	.LFE337:
 747              		.section	.text.FLASH_SPI_Init,"ax",%progbits
 748              		.align	1
 749              		.global	FLASH_SPI_Init
 750              		.syntax unified
 751              		.thumb
 752              		.thumb_func
ARM GAS  /tmp/ccta2Cae.s 			page 20


 754              	FLASH_SPI_Init:
 755              	.LFB338:
 326:../../init/init.c **** 
 327:../../init/init.c **** 
 328:../../init/init.c **** /*******************************************************************************
 329:../../init/init.c **** *                                                                              *
 330:../../init/init.c **** * PROCEDURE:                                                                   *
 331:../../init/init.c **** * 		FLASH_SPI_Init                                                         *
 332:../../init/init.c **** *                                                                              *
 333:../../init/init.c **** * DESCRIPTION:                                                                 *
 334:../../init/init.c **** * 		Initializes the SPI peripheral used for communication with the         *
 335:../../init/init.c **** *       external flash chip                                                    *
 336:../../init/init.c **** *                                                                              *
 337:../../init/init.c **** *       Uses MCU SPI2 peripheral                                               *
 338:../../init/init.c **** *                                                                              *
 339:../../init/init.c **** *******************************************************************************/
 340:../../init/init.c **** void FLASH_SPI_Init(void)
 341:../../init/init.c **** {
 756              		.loc 1 341 1 is_stmt 1 view -0
 757              		.cfi_startproc
 758              		@ args = 0, pretend = 0, frame = 0
 759              		@ frame_needed = 0, uses_anonymous_args = 0
 760 0000 08B5     		push	{r3, lr}
 761              	.LCFI17:
 762              		.cfi_def_cfa_offset 8
 763              		.cfi_offset 3, -8
 764              		.cfi_offset 14, -4
 342:../../init/init.c **** 
 343:../../init/init.c **** /* SPI2 parameter configuration */
 344:../../init/init.c **** hspi2.Instance                        = SPI2;
 765              		.loc 1 344 1 view .LVU257
 766              		.loc 1 344 39 is_stmt 0 view .LVU258
 767 0002 1348     		ldr	r0, .L46
 768 0004 134B     		ldr	r3, .L46+4
 769 0006 0360     		str	r3, [r0]
 345:../../init/init.c **** hspi2.Init.Mode                       = SPI_MODE_MASTER;
 770              		.loc 1 345 1 is_stmt 1 view .LVU259
 771              		.loc 1 345 39 is_stmt 0 view .LVU260
 772 0008 4FF48003 		mov	r3, #4194304
 773 000c 4360     		str	r3, [r0, #4]
 346:../../init/init.c **** hspi2.Init.Direction                  = SPI_DIRECTION_2LINES;
 774              		.loc 1 346 1 is_stmt 1 view .LVU261
 775              		.loc 1 346 39 is_stmt 0 view .LVU262
 776 000e 0023     		movs	r3, #0
 777 0010 8360     		str	r3, [r0, #8]
 347:../../init/init.c **** hspi2.Init.DataSize                   = SPI_DATASIZE_8BIT;
 778              		.loc 1 347 1 is_stmt 1 view .LVU263
 779              		.loc 1 347 39 is_stmt 0 view .LVU264
 780 0012 0722     		movs	r2, #7
 781 0014 C260     		str	r2, [r0, #12]
 348:../../init/init.c **** hspi2.Init.CLKPolarity                = SPI_POLARITY_LOW;
 782              		.loc 1 348 1 is_stmt 1 view .LVU265
 783              		.loc 1 348 39 is_stmt 0 view .LVU266
 784 0016 0361     		str	r3, [r0, #16]
 349:../../init/init.c **** hspi2.Init.CLKPhase                   = SPI_PHASE_1EDGE;
 785              		.loc 1 349 1 is_stmt 1 view .LVU267
 786              		.loc 1 349 39 is_stmt 0 view .LVU268
ARM GAS  /tmp/ccta2Cae.s 			page 21


 787 0018 4361     		str	r3, [r0, #20]
 350:../../init/init.c **** hspi2.Init.NSS                        = SPI_NSS_SOFT;
 788              		.loc 1 350 1 is_stmt 1 view .LVU269
 789              		.loc 1 350 39 is_stmt 0 view .LVU270
 790 001a 4FF08062 		mov	r2, #67108864
 791 001e 8261     		str	r2, [r0, #24]
 351:../../init/init.c **** hspi2.Init.BaudRatePrescaler          = SPI_BAUDRATEPRESCALER_2;
 792              		.loc 1 351 1 is_stmt 1 view .LVU271
 793              		.loc 1 351 39 is_stmt 0 view .LVU272
 794 0020 C361     		str	r3, [r0, #28]
 352:../../init/init.c **** hspi2.Init.FirstBit                   = SPI_FIRSTBIT_MSB;
 795              		.loc 1 352 1 is_stmt 1 view .LVU273
 796              		.loc 1 352 39 is_stmt 0 view .LVU274
 797 0022 0362     		str	r3, [r0, #32]
 353:../../init/init.c **** hspi2.Init.TIMode                     = SPI_TIMODE_DISABLE;
 798              		.loc 1 353 1 is_stmt 1 view .LVU275
 799              		.loc 1 353 39 is_stmt 0 view .LVU276
 800 0024 4362     		str	r3, [r0, #36]
 354:../../init/init.c **** hspi2.Init.CRCCalculation             = SPI_CRCCALCULATION_DISABLE;
 801              		.loc 1 354 1 is_stmt 1 view .LVU277
 802              		.loc 1 354 39 is_stmt 0 view .LVU278
 803 0026 8362     		str	r3, [r0, #40]
 355:../../init/init.c **** hspi2.Init.CRCPolynomial              = 0x0;
 804              		.loc 1 355 1 is_stmt 1 view .LVU279
 805              		.loc 1 355 39 is_stmt 0 view .LVU280
 806 0028 C362     		str	r3, [r0, #44]
 356:../../init/init.c **** hspi2.Init.NSSPMode                   = SPI_NSS_PULSE_ENABLE;
 807              		.loc 1 356 1 is_stmt 1 view .LVU281
 808              		.loc 1 356 39 is_stmt 0 view .LVU282
 809 002a 4FF08042 		mov	r2, #1073741824
 810 002e 4263     		str	r2, [r0, #52]
 357:../../init/init.c **** hspi2.Init.NSSPolarity                = SPI_NSS_POLARITY_LOW;
 811              		.loc 1 357 1 is_stmt 1 view .LVU283
 812              		.loc 1 357 39 is_stmt 0 view .LVU284
 813 0030 8363     		str	r3, [r0, #56]
 358:../../init/init.c **** hspi2.Init.FifoThreshold              = SPI_FIFO_THRESHOLD_01DATA;
 814              		.loc 1 358 1 is_stmt 1 view .LVU285
 815              		.loc 1 358 39 is_stmt 0 view .LVU286
 816 0032 C363     		str	r3, [r0, #60]
 359:../../init/init.c **** hspi2.Init.TxCRCInitializationPattern = SPI_CRC_INITIALIZATION_ALL_ZERO_PATTERN;
 817              		.loc 1 359 1 is_stmt 1 view .LVU287
 818              		.loc 1 359 39 is_stmt 0 view .LVU288
 819 0034 0364     		str	r3, [r0, #64]
 360:../../init/init.c **** hspi2.Init.RxCRCInitializationPattern = SPI_CRC_INITIALIZATION_ALL_ZERO_PATTERN;
 820              		.loc 1 360 1 is_stmt 1 view .LVU289
 821              		.loc 1 360 39 is_stmt 0 view .LVU290
 822 0036 4364     		str	r3, [r0, #68]
 361:../../init/init.c **** hspi2.Init.MasterSSIdleness           = SPI_MASTER_SS_IDLENESS_00CYCLE;
 823              		.loc 1 361 1 is_stmt 1 view .LVU291
 824              		.loc 1 361 39 is_stmt 0 view .LVU292
 825 0038 8364     		str	r3, [r0, #72]
 362:../../init/init.c **** hspi2.Init.MasterInterDataIdleness    = SPI_MASTER_INTERDATA_IDLENESS_00CYCLE;
 826              		.loc 1 362 1 is_stmt 1 view .LVU293
 827              		.loc 1 362 39 is_stmt 0 view .LVU294
 828 003a C364     		str	r3, [r0, #76]
 363:../../init/init.c **** hspi2.Init.MasterReceiverAutoSusp     = SPI_MASTER_RX_AUTOSUSP_DISABLE;
 829              		.loc 1 363 1 is_stmt 1 view .LVU295
ARM GAS  /tmp/ccta2Cae.s 			page 22


 830              		.loc 1 363 39 is_stmt 0 view .LVU296
 831 003c 0365     		str	r3, [r0, #80]
 364:../../init/init.c **** hspi2.Init.MasterKeepIOState          = SPI_MASTER_KEEP_IO_STATE_DISABLE;
 832              		.loc 1 364 1 is_stmt 1 view .LVU297
 833              		.loc 1 364 39 is_stmt 0 view .LVU298
 834 003e 4365     		str	r3, [r0, #84]
 365:../../init/init.c **** hspi2.Init.IOSwap                     = SPI_IO_SWAP_DISABLE;
 835              		.loc 1 365 1 is_stmt 1 view .LVU299
 836              		.loc 1 365 39 is_stmt 0 view .LVU300
 837 0040 8365     		str	r3, [r0, #88]
 366:../../init/init.c **** if ( HAL_SPI_Init( &hspi2 ) != HAL_OK )
 838              		.loc 1 366 1 is_stmt 1 view .LVU301
 839              		.loc 1 366 6 is_stmt 0 view .LVU302
 840 0042 FFF7FEFF 		bl	HAL_SPI_Init
 841              	.LVL26:
 842              		.loc 1 366 4 view .LVU303
 843 0046 00B9     		cbnz	r0, .L45
 844              	.L42:
 367:../../init/init.c **** 	{
 368:../../init/init.c **** 	Error_Handler();
 369:../../init/init.c **** 	}
 370:../../init/init.c **** 
 371:../../init/init.c **** } /* FLASH_SPI_Init */
 845              		.loc 1 371 1 view .LVU304
 846 0048 08BD     		pop	{r3, pc}
 847              	.L45:
 848              	.LBB14:
 368:../../init/init.c **** 	}
 849              		.loc 1 368 2 is_stmt 1 view .LVU305
 850 004a FFF7FEFF 		bl	Error_Handler
 851              	.LVL27:
 852              	.LBE14:
 853              		.loc 1 371 1 is_stmt 0 view .LVU306
 854 004e FBE7     		b	.L42
 855              	.L47:
 856              		.align	2
 857              	.L46:
 858 0050 00000000 		.word	hspi2
 859 0054 00380040 		.word	1073756160
 860              		.cfi_endproc
 861              	.LFE338:
 863              		.section	.text.USB_UART_Init,"ax",%progbits
 864              		.align	1
 865              		.global	USB_UART_Init
 866              		.syntax unified
 867              		.thumb
 868              		.thumb_func
 870              	USB_UART_Init:
 871              	.LFB339:
 372:../../init/init.c **** 
 373:../../init/init.c **** 
 374:../../init/init.c **** /*******************************************************************************
 375:../../init/init.c **** *                                                                              *
 376:../../init/init.c **** * PROCEDURE NAME:                                                              *
 377:../../init/init.c **** * 		USB_UART_Init                                                          *
 378:../../init/init.c **** *                                                                              *
 379:../../init/init.c **** * DESCRIPTION:                                                                 *
ARM GAS  /tmp/ccta2Cae.s 			page 23


 380:../../init/init.c **** * 		Initializes the UART interface used for USB communication with a host  *
 381:../../init/init.c **** *       PC                                                                     *
 382:../../init/init.c **** *                                                                              *
 383:../../init/init.c **** *       Uses MCU USART1 peripheral                                             *
 384:../../init/init.c **** *                                                                              *
 385:../../init/init.c **** *******************************************************************************/
 386:../../init/init.c **** void USB_UART_Init
 387:../../init/init.c **** 	(
 388:../../init/init.c ****  	void
 389:../../init/init.c **** 	)
 390:../../init/init.c **** {
 872              		.loc 1 390 1 is_stmt 1 view -0
 873              		.cfi_startproc
 874              		@ args = 0, pretend = 0, frame = 0
 875              		@ frame_needed = 0, uses_anonymous_args = 0
 876 0000 08B5     		push	{r3, lr}
 877              	.LCFI18:
 878              		.cfi_def_cfa_offset 8
 879              		.cfi_offset 3, -8
 880              		.cfi_offset 14, -4
 391:../../init/init.c **** /* UART handler instance */
 392:../../init/init.c **** huart1.Instance = USART1;
 881              		.loc 1 392 1 view .LVU308
 882              		.loc 1 392 17 is_stmt 0 view .LVU309
 883 0002 1748     		ldr	r0, .L58
 884 0004 174B     		ldr	r3, .L58+4
 885 0006 0360     		str	r3, [r0]
 393:../../init/init.c **** 
 394:../../init/init.c **** /* Initialization settings */
 395:../../init/init.c **** huart1.Init.BaudRate               = 921600;
 886              		.loc 1 395 1 is_stmt 1 view .LVU310
 887              		.loc 1 395 36 is_stmt 0 view .LVU311
 888 0008 4FF46123 		mov	r3, #921600
 889 000c 4360     		str	r3, [r0, #4]
 396:../../init/init.c **** huart1.Init.WordLength             = UART_WORDLENGTH_8B;
 890              		.loc 1 396 1 is_stmt 1 view .LVU312
 891              		.loc 1 396 36 is_stmt 0 view .LVU313
 892 000e 0023     		movs	r3, #0
 893 0010 8360     		str	r3, [r0, #8]
 397:../../init/init.c **** huart1.Init.StopBits               = UART_STOPBITS_1;
 894              		.loc 1 397 1 is_stmt 1 view .LVU314
 895              		.loc 1 397 36 is_stmt 0 view .LVU315
 896 0012 C360     		str	r3, [r0, #12]
 398:../../init/init.c **** huart1.Init.Parity                 = UART_PARITY_NONE;
 897              		.loc 1 398 1 is_stmt 1 view .LVU316
 898              		.loc 1 398 36 is_stmt 0 view .LVU317
 899 0014 0361     		str	r3, [r0, #16]
 399:../../init/init.c **** huart1.Init.Mode                   = UART_MODE_TX_RX;
 900              		.loc 1 399 1 is_stmt 1 view .LVU318
 901              		.loc 1 399 36 is_stmt 0 view .LVU319
 902 0016 0C22     		movs	r2, #12
 903 0018 4261     		str	r2, [r0, #20]
 400:../../init/init.c **** huart1.Init.HwFlowCtl              = UART_HWCONTROL_NONE;
 904              		.loc 1 400 1 is_stmt 1 view .LVU320
 905              		.loc 1 400 36 is_stmt 0 view .LVU321
 906 001a 8361     		str	r3, [r0, #24]
 401:../../init/init.c **** huart1.Init.OverSampling           = UART_OVERSAMPLING_16;
ARM GAS  /tmp/ccta2Cae.s 			page 24


 907              		.loc 1 401 1 is_stmt 1 view .LVU322
 908              		.loc 1 401 36 is_stmt 0 view .LVU323
 909 001c C361     		str	r3, [r0, #28]
 402:../../init/init.c **** huart1.Init.OneBitSampling         = UART_ONE_BIT_SAMPLE_DISABLE;
 910              		.loc 1 402 1 is_stmt 1 view .LVU324
 911              		.loc 1 402 36 is_stmt 0 view .LVU325
 912 001e 0362     		str	r3, [r0, #32]
 403:../../init/init.c **** huart1.Init.ClockPrescaler         = UART_PRESCALER_DIV1;
 913              		.loc 1 403 1 is_stmt 1 view .LVU326
 914              		.loc 1 403 36 is_stmt 0 view .LVU327
 915 0020 4362     		str	r3, [r0, #36]
 404:../../init/init.c **** huart1.AdvancedInit.AdvFeatureInit = UART_ADVFEATURE_NO_INIT;
 916              		.loc 1 404 1 is_stmt 1 view .LVU328
 917              		.loc 1 404 36 is_stmt 0 view .LVU329
 918 0022 8362     		str	r3, [r0, #40]
 405:../../init/init.c **** 
 406:../../init/init.c **** /* Write to registers and call error handler if initialization fails */
 407:../../init/init.c **** if (HAL_UART_Init(&huart1) != HAL_OK)
 919              		.loc 1 407 1 is_stmt 1 view .LVU330
 920              		.loc 1 407 5 is_stmt 0 view .LVU331
 921 0024 FFF7FEFF 		bl	HAL_UART_Init
 922              	.LVL28:
 923              		.loc 1 407 4 view .LVU332
 924 0028 70B9     		cbnz	r0, .L54
 925              	.L49:
 408:../../init/init.c **** 	{
 409:../../init/init.c **** 	Error_Handler();
 410:../../init/init.c **** 	}
 411:../../init/init.c **** if (HAL_UARTEx_SetTxFifoThreshold(&huart1, UART_TXFIFO_THRESHOLD_1_8) != HAL_OK)
 926              		.loc 1 411 1 is_stmt 1 view .LVU333
 927              		.loc 1 411 5 is_stmt 0 view .LVU334
 928 002a 0021     		movs	r1, #0
 929 002c 0C48     		ldr	r0, .L58
 930 002e FFF7FEFF 		bl	HAL_UARTEx_SetTxFifoThreshold
 931              	.LVL29:
 932              		.loc 1 411 4 view .LVU335
 933 0032 60B9     		cbnz	r0, .L55
 934              	.L50:
 412:../../init/init.c **** 	{
 413:../../init/init.c **** 	Error_Handler();
 414:../../init/init.c **** 	}
 415:../../init/init.c **** if (HAL_UARTEx_SetRxFifoThreshold(&huart1, UART_RXFIFO_THRESHOLD_1_8) != HAL_OK)
 935              		.loc 1 415 1 is_stmt 1 view .LVU336
 936              		.loc 1 415 5 is_stmt 0 view .LVU337
 937 0034 0021     		movs	r1, #0
 938 0036 0A48     		ldr	r0, .L58
 939 0038 FFF7FEFF 		bl	HAL_UARTEx_SetRxFifoThreshold
 940              	.LVL30:
 941              		.loc 1 415 4 view .LVU338
 942 003c 50B9     		cbnz	r0, .L56
 943              	.L51:
 416:../../init/init.c **** 	{
 417:../../init/init.c **** 	Error_Handler();
 418:../../init/init.c **** 	}
 419:../../init/init.c **** if (HAL_UARTEx_DisableFifoMode(&huart1) != HAL_OK)
 944              		.loc 1 419 1 is_stmt 1 view .LVU339
 945              		.loc 1 419 5 is_stmt 0 view .LVU340
ARM GAS  /tmp/ccta2Cae.s 			page 25


 946 003e 0848     		ldr	r0, .L58
 947 0040 FFF7FEFF 		bl	HAL_UARTEx_DisableFifoMode
 948              	.LVL31:
 949              		.loc 1 419 4 view .LVU341
 950 0044 48B9     		cbnz	r0, .L57
 951              	.L48:
 420:../../init/init.c **** 	{
 421:../../init/init.c **** 	Error_Handler();
 422:../../init/init.c **** 	}
 423:../../init/init.c **** 
 424:../../init/init.c **** } /* USB_UART_Init */
 952              		.loc 1 424 1 view .LVU342
 953 0046 08BD     		pop	{r3, pc}
 954              	.L54:
 955              	.LBB15:
 409:../../init/init.c **** 	}
 956              		.loc 1 409 2 is_stmt 1 view .LVU343
 957 0048 FFF7FEFF 		bl	Error_Handler
 958              	.LVL32:
 959 004c EDE7     		b	.L49
 960              	.L55:
 961              	.LBE15:
 962              	.LBB16:
 413:../../init/init.c **** 	}
 963              		.loc 1 413 2 view .LVU344
 964 004e FFF7FEFF 		bl	Error_Handler
 965              	.LVL33:
 966 0052 EFE7     		b	.L50
 967              	.L56:
 968              	.LBE16:
 969              	.LBB17:
 417:../../init/init.c **** 	}
 970              		.loc 1 417 2 view .LVU345
 971 0054 FFF7FEFF 		bl	Error_Handler
 972              	.LVL34:
 973 0058 F1E7     		b	.L51
 974              	.L57:
 975              	.LBE17:
 976              	.LBB18:
 421:../../init/init.c **** 	}
 977              		.loc 1 421 2 view .LVU346
 978 005a FFF7FEFF 		bl	Error_Handler
 979              	.LVL35:
 980              	.LBE18:
 981              		.loc 1 424 1 is_stmt 0 view .LVU347
 982 005e F2E7     		b	.L48
 983              	.L59:
 984              		.align	2
 985              	.L58:
 986 0060 00000000 		.word	huart1
 987 0064 00100140 		.word	1073811456
 988              		.cfi_endproc
 989              	.LFE339:
 991              		.section	.text.Valve_UART_Init,"ax",%progbits
 992              		.align	1
 993              		.global	Valve_UART_Init
 994              		.syntax unified
ARM GAS  /tmp/ccta2Cae.s 			page 26


 995              		.thumb
 996              		.thumb_func
 998              	Valve_UART_Init:
 999              	.LFB340:
 425:../../init/init.c **** 
 426:../../init/init.c **** 
 427:../../init/init.c **** /*******************************************************************************
 428:../../init/init.c **** *                                                                              *
 429:../../init/init.c **** * PROCEDURE:                                                                   *
 430:../../init/init.c **** * 		Valve_UART_Init                                                        *
 431:../../init/init.c **** *                                                                              *
 432:../../init/init.c **** * DESCRIPTION:                                                                 *
 433:../../init/init.c **** * 		Initializes the UART interface used for serial communication with      *
 434:../../init/init.c **** *       the valve controller                                                   *
 435:../../init/init.c **** *                                                                              *
 436:../../init/init.c **** *******************************************************************************/
 437:../../init/init.c **** void Valve_UART_Init
 438:../../init/init.c **** 	(
 439:../../init/init.c **** 	void
 440:../../init/init.c **** 	)
 441:../../init/init.c **** {
 1000              		.loc 1 441 1 is_stmt 1 view -0
 1001              		.cfi_startproc
 1002              		@ args = 0, pretend = 0, frame = 0
 1003              		@ frame_needed = 0, uses_anonymous_args = 0
 1004 0000 08B5     		push	{r3, lr}
 1005              	.LCFI19:
 1006              		.cfi_def_cfa_offset 8
 1007              		.cfi_offset 3, -8
 1008              		.cfi_offset 14, -4
 442:../../init/init.c **** /* Initialization Configuration */
 443:../../init/init.c **** huart2.Instance                    = USART2;
 1009              		.loc 1 443 1 view .LVU349
 1010              		.loc 1 443 36 is_stmt 0 view .LVU350
 1011 0002 1748     		ldr	r0, .L70
 1012 0004 174B     		ldr	r3, .L70+4
 1013 0006 0360     		str	r3, [r0]
 444:../../init/init.c **** huart2.Init.BaudRate               = 921600;
 1014              		.loc 1 444 1 is_stmt 1 view .LVU351
 1015              		.loc 1 444 36 is_stmt 0 view .LVU352
 1016 0008 4FF46123 		mov	r3, #921600
 1017 000c 4360     		str	r3, [r0, #4]
 445:../../init/init.c **** huart2.Init.WordLength             = UART_WORDLENGTH_8B;
 1018              		.loc 1 445 1 is_stmt 1 view .LVU353
 1019              		.loc 1 445 36 is_stmt 0 view .LVU354
 1020 000e 0023     		movs	r3, #0
 1021 0010 8360     		str	r3, [r0, #8]
 446:../../init/init.c **** huart2.Init.StopBits               = UART_STOPBITS_1;
 1022              		.loc 1 446 1 is_stmt 1 view .LVU355
 1023              		.loc 1 446 36 is_stmt 0 view .LVU356
 1024 0012 C360     		str	r3, [r0, #12]
 447:../../init/init.c **** huart2.Init.Parity                 = UART_PARITY_NONE;
 1025              		.loc 1 447 1 is_stmt 1 view .LVU357
 1026              		.loc 1 447 36 is_stmt 0 view .LVU358
 1027 0014 0361     		str	r3, [r0, #16]
 448:../../init/init.c **** huart2.Init.Mode                   = UART_MODE_TX_RX;
 1028              		.loc 1 448 1 is_stmt 1 view .LVU359
ARM GAS  /tmp/ccta2Cae.s 			page 27


 1029              		.loc 1 448 36 is_stmt 0 view .LVU360
 1030 0016 0C22     		movs	r2, #12
 1031 0018 4261     		str	r2, [r0, #20]
 449:../../init/init.c **** huart2.Init.HwFlowCtl              = UART_HWCONTROL_NONE;
 1032              		.loc 1 449 1 is_stmt 1 view .LVU361
 1033              		.loc 1 449 36 is_stmt 0 view .LVU362
 1034 001a 8361     		str	r3, [r0, #24]
 450:../../init/init.c **** huart2.Init.OverSampling           = UART_OVERSAMPLING_16;
 1035              		.loc 1 450 1 is_stmt 1 view .LVU363
 1036              		.loc 1 450 36 is_stmt 0 view .LVU364
 1037 001c C361     		str	r3, [r0, #28]
 451:../../init/init.c **** huart2.Init.OneBitSampling         = UART_ONE_BIT_SAMPLE_DISABLE;
 1038              		.loc 1 451 1 is_stmt 1 view .LVU365
 1039              		.loc 1 451 36 is_stmt 0 view .LVU366
 1040 001e 0362     		str	r3, [r0, #32]
 452:../../init/init.c **** huart2.Init.ClockPrescaler         = UART_PRESCALER_DIV1;
 1041              		.loc 1 452 1 is_stmt 1 view .LVU367
 1042              		.loc 1 452 36 is_stmt 0 view .LVU368
 1043 0020 4362     		str	r3, [r0, #36]
 453:../../init/init.c **** huart2.AdvancedInit.AdvFeatureInit = UART_ADVFEATURE_NO_INIT;
 1044              		.loc 1 453 1 is_stmt 1 view .LVU369
 1045              		.loc 1 453 36 is_stmt 0 view .LVU370
 1046 0022 8362     		str	r3, [r0, #40]
 454:../../init/init.c **** 
 455:../../init/init.c **** /* Initialize the UART interface */
 456:../../init/init.c **** if ( HAL_UART_Init( &huart2 ) != HAL_OK )
 1047              		.loc 1 456 1 is_stmt 1 view .LVU371
 1048              		.loc 1 456 6 is_stmt 0 view .LVU372
 1049 0024 FFF7FEFF 		bl	HAL_UART_Init
 1050              	.LVL36:
 1051              		.loc 1 456 4 view .LVU373
 1052 0028 70B9     		cbnz	r0, .L66
 1053              	.L61:
 457:../../init/init.c **** 	{
 458:../../init/init.c **** 	Error_Handler();
 459:../../init/init.c **** 	}
 460:../../init/init.c **** if ( HAL_UARTEx_SetTxFifoThreshold( &huart2, UART_TXFIFO_THRESHOLD_1_8 ) != HAL_OK )
 1054              		.loc 1 460 1 is_stmt 1 view .LVU374
 1055              		.loc 1 460 6 is_stmt 0 view .LVU375
 1056 002a 0021     		movs	r1, #0
 1057 002c 0C48     		ldr	r0, .L70
 1058 002e FFF7FEFF 		bl	HAL_UARTEx_SetTxFifoThreshold
 1059              	.LVL37:
 1060              		.loc 1 460 4 view .LVU376
 1061 0032 60B9     		cbnz	r0, .L67
 1062              	.L62:
 461:../../init/init.c **** 	{
 462:../../init/init.c **** 	Error_Handler();
 463:../../init/init.c **** 	}
 464:../../init/init.c **** if ( HAL_UARTEx_SetRxFifoThreshold( &huart2, UART_RXFIFO_THRESHOLD_1_8 ) != HAL_OK )
 1063              		.loc 1 464 1 is_stmt 1 view .LVU377
 1064              		.loc 1 464 6 is_stmt 0 view .LVU378
 1065 0034 0021     		movs	r1, #0
 1066 0036 0A48     		ldr	r0, .L70
 1067 0038 FFF7FEFF 		bl	HAL_UARTEx_SetRxFifoThreshold
 1068              	.LVL38:
 1069              		.loc 1 464 4 view .LVU379
ARM GAS  /tmp/ccta2Cae.s 			page 28


 1070 003c 50B9     		cbnz	r0, .L68
 1071              	.L63:
 465:../../init/init.c **** 	{
 466:../../init/init.c **** 	Error_Handler();
 467:../../init/init.c **** 	}
 468:../../init/init.c **** if ( HAL_UARTEx_DisableFifoMode( &huart2 ) != HAL_OK )
 1072              		.loc 1 468 1 is_stmt 1 view .LVU380
 1073              		.loc 1 468 6 is_stmt 0 view .LVU381
 1074 003e 0848     		ldr	r0, .L70
 1075 0040 FFF7FEFF 		bl	HAL_UARTEx_DisableFifoMode
 1076              	.LVL39:
 1077              		.loc 1 468 4 view .LVU382
 1078 0044 48B9     		cbnz	r0, .L69
 1079              	.L60:
 469:../../init/init.c **** 	{
 470:../../init/init.c **** 	Error_Handler();
 471:../../init/init.c **** 	}
 472:../../init/init.c **** } /* Valve_UART_Init */
 1080              		.loc 1 472 1 view .LVU383
 1081 0046 08BD     		pop	{r3, pc}
 1082              	.L66:
 1083              	.LBB19:
 458:../../init/init.c **** 	}
 1084              		.loc 1 458 2 is_stmt 1 view .LVU384
 1085 0048 FFF7FEFF 		bl	Error_Handler
 1086              	.LVL40:
 1087 004c EDE7     		b	.L61
 1088              	.L67:
 1089              	.LBE19:
 1090              	.LBB20:
 462:../../init/init.c **** 	}
 1091              		.loc 1 462 2 view .LVU385
 1092 004e FFF7FEFF 		bl	Error_Handler
 1093              	.LVL41:
 1094 0052 EFE7     		b	.L62
 1095              	.L68:
 1096              	.LBE20:
 1097              	.LBB21:
 466:../../init/init.c **** 	}
 1098              		.loc 1 466 2 view .LVU386
 1099 0054 FFF7FEFF 		bl	Error_Handler
 1100              	.LVL42:
 1101 0058 F1E7     		b	.L63
 1102              	.L69:
 1103              	.LBE21:
 1104              	.LBB22:
 470:../../init/init.c **** 	}
 1105              		.loc 1 470 2 view .LVU387
 1106 005a FFF7FEFF 		bl	Error_Handler
 1107              	.LVL43:
 1108              	.LBE22:
 1109              		.loc 1 472 1 is_stmt 0 view .LVU388
 1110 005e F2E7     		b	.L60
 1111              	.L71:
 1112              		.align	2
 1113              	.L70:
 1114 0060 00000000 		.word	huart2
ARM GAS  /tmp/ccta2Cae.s 			page 29


 1115 0064 00440040 		.word	1073759232
 1116              		.cfi_endproc
 1117              	.LFE340:
 1119              		.section	.text.Wireless_UART_Init,"ax",%progbits
 1120              		.align	1
 1121              		.global	Wireless_UART_Init
 1122              		.syntax unified
 1123              		.thumb
 1124              		.thumb_func
 1126              	Wireless_UART_Init:
 1127              	.LFB341:
 473:../../init/init.c **** 
 474:../../init/init.c **** 
 475:../../init/init.c **** /*******************************************************************************
 476:../../init/init.c **** *                                                                              *
 477:../../init/init.c **** * PROCEDURE:                                                                   *
 478:../../init/init.c **** * 		Wireless_UART_Init                                                     *
 479:../../init/init.c **** *                                                                              *
 480:../../init/init.c **** * DESCRIPTION:                                                                 *
 481:../../init/init.c **** * 		Initializes the UART interface used for serial communication over      *
 482:../../init/init.c **** *       the wireless interface                                                 *
 483:../../init/init.c **** *                                                                              *
 484:../../init/init.c **** *******************************************************************************/
 485:../../init/init.c **** void Wireless_UART_Init
 486:../../init/init.c **** 	(
 487:../../init/init.c **** 	void
 488:../../init/init.c **** 	)
 489:../../init/init.c **** {
 1128              		.loc 1 489 1 is_stmt 1 view -0
 1129              		.cfi_startproc
 1130              		@ args = 0, pretend = 0, frame = 0
 1131              		@ frame_needed = 0, uses_anonymous_args = 0
 1132 0000 08B5     		push	{r3, lr}
 1133              	.LCFI20:
 1134              		.cfi_def_cfa_offset 8
 1135              		.cfi_offset 3, -8
 1136              		.cfi_offset 14, -4
 490:../../init/init.c **** /* UART Initialization configuration */
 491:../../init/init.c **** huart4.Instance                    = UART4;
 1137              		.loc 1 491 1 view .LVU390
 1138              		.loc 1 491 36 is_stmt 0 view .LVU391
 1139 0002 1748     		ldr	r0, .L82
 1140 0004 174B     		ldr	r3, .L82+4
 1141 0006 0360     		str	r3, [r0]
 492:../../init/init.c **** huart4.Init.BaudRate               = 9600;
 1142              		.loc 1 492 1 is_stmt 1 view .LVU392
 1143              		.loc 1 492 36 is_stmt 0 view .LVU393
 1144 0008 4FF41653 		mov	r3, #9600
 1145 000c 4360     		str	r3, [r0, #4]
 493:../../init/init.c **** huart4.Init.WordLength             = UART_WORDLENGTH_8B;
 1146              		.loc 1 493 1 is_stmt 1 view .LVU394
 1147              		.loc 1 493 36 is_stmt 0 view .LVU395
 1148 000e 0023     		movs	r3, #0
 1149 0010 8360     		str	r3, [r0, #8]
 494:../../init/init.c **** huart4.Init.StopBits               = UART_STOPBITS_1;
 1150              		.loc 1 494 1 is_stmt 1 view .LVU396
 1151              		.loc 1 494 36 is_stmt 0 view .LVU397
ARM GAS  /tmp/ccta2Cae.s 			page 30


 1152 0012 C360     		str	r3, [r0, #12]
 495:../../init/init.c **** huart4.Init.Parity                 = UART_PARITY_NONE;
 1153              		.loc 1 495 1 is_stmt 1 view .LVU398
 1154              		.loc 1 495 36 is_stmt 0 view .LVU399
 1155 0014 0361     		str	r3, [r0, #16]
 496:../../init/init.c **** huart4.Init.Mode                   = UART_MODE_TX_RX;
 1156              		.loc 1 496 1 is_stmt 1 view .LVU400
 1157              		.loc 1 496 36 is_stmt 0 view .LVU401
 1158 0016 0C22     		movs	r2, #12
 1159 0018 4261     		str	r2, [r0, #20]
 497:../../init/init.c **** huart4.Init.HwFlowCtl              = UART_HWCONTROL_NONE;
 1160              		.loc 1 497 1 is_stmt 1 view .LVU402
 1161              		.loc 1 497 36 is_stmt 0 view .LVU403
 1162 001a 8361     		str	r3, [r0, #24]
 498:../../init/init.c **** huart4.Init.OverSampling           = UART_OVERSAMPLING_16;
 1163              		.loc 1 498 1 is_stmt 1 view .LVU404
 1164              		.loc 1 498 36 is_stmt 0 view .LVU405
 1165 001c C361     		str	r3, [r0, #28]
 499:../../init/init.c **** huart4.Init.OneBitSampling         = UART_ONE_BIT_SAMPLE_DISABLE;
 1166              		.loc 1 499 1 is_stmt 1 view .LVU406
 1167              		.loc 1 499 36 is_stmt 0 view .LVU407
 1168 001e 0362     		str	r3, [r0, #32]
 500:../../init/init.c **** huart4.Init.ClockPrescaler         = UART_PRESCALER_DIV1;
 1169              		.loc 1 500 1 is_stmt 1 view .LVU408
 1170              		.loc 1 500 36 is_stmt 0 view .LVU409
 1171 0020 4362     		str	r3, [r0, #36]
 501:../../init/init.c **** huart4.AdvancedInit.AdvFeatureInit = UART_ADVFEATURE_NO_INIT;
 1172              		.loc 1 501 1 is_stmt 1 view .LVU410
 1173              		.loc 1 501 36 is_stmt 0 view .LVU411
 1174 0022 8362     		str	r3, [r0, #40]
 502:../../init/init.c **** 
 503:../../init/init.c **** /* Initialize the UART peripheral */
 504:../../init/init.c **** if ( HAL_UART_Init( &huart4 ) != HAL_OK )
 1175              		.loc 1 504 1 is_stmt 1 view .LVU412
 1176              		.loc 1 504 6 is_stmt 0 view .LVU413
 1177 0024 FFF7FEFF 		bl	HAL_UART_Init
 1178              	.LVL44:
 1179              		.loc 1 504 4 view .LVU414
 1180 0028 70B9     		cbnz	r0, .L78
 1181              	.L73:
 505:../../init/init.c **** 	{
 506:../../init/init.c **** 	Error_Handler();
 507:../../init/init.c **** 	}
 508:../../init/init.c **** if ( HAL_UARTEx_SetTxFifoThreshold( &huart4, UART_TXFIFO_THRESHOLD_1_8 ) != HAL_OK )
 1182              		.loc 1 508 1 is_stmt 1 view .LVU415
 1183              		.loc 1 508 6 is_stmt 0 view .LVU416
 1184 002a 0021     		movs	r1, #0
 1185 002c 0C48     		ldr	r0, .L82
 1186 002e FFF7FEFF 		bl	HAL_UARTEx_SetTxFifoThreshold
 1187              	.LVL45:
 1188              		.loc 1 508 4 view .LVU417
 1189 0032 60B9     		cbnz	r0, .L79
 1190              	.L74:
 509:../../init/init.c **** 	{
 510:../../init/init.c **** 	Error_Handler();
 511:../../init/init.c **** 	}
 512:../../init/init.c **** if ( HAL_UARTEx_SetRxFifoThreshold( &huart4, UART_RXFIFO_THRESHOLD_1_8 ) != HAL_OK )
ARM GAS  /tmp/ccta2Cae.s 			page 31


 1191              		.loc 1 512 1 is_stmt 1 view .LVU418
 1192              		.loc 1 512 6 is_stmt 0 view .LVU419
 1193 0034 0021     		movs	r1, #0
 1194 0036 0A48     		ldr	r0, .L82
 1195 0038 FFF7FEFF 		bl	HAL_UARTEx_SetRxFifoThreshold
 1196              	.LVL46:
 1197              		.loc 1 512 4 view .LVU420
 1198 003c 50B9     		cbnz	r0, .L80
 1199              	.L75:
 513:../../init/init.c **** 	{
 514:../../init/init.c **** 	Error_Handler();
 515:../../init/init.c **** 	}
 516:../../init/init.c **** if ( HAL_UARTEx_DisableFifoMode( &huart4 ) != HAL_OK )
 1200              		.loc 1 516 1 is_stmt 1 view .LVU421
 1201              		.loc 1 516 6 is_stmt 0 view .LVU422
 1202 003e 0848     		ldr	r0, .L82
 1203 0040 FFF7FEFF 		bl	HAL_UARTEx_DisableFifoMode
 1204              	.LVL47:
 1205              		.loc 1 516 4 view .LVU423
 1206 0044 48B9     		cbnz	r0, .L81
 1207              	.L72:
 517:../../init/init.c **** 	{
 518:../../init/init.c **** 	Error_Handler();
 519:../../init/init.c **** 	}
 520:../../init/init.c **** } /* Wireless_UART_Init */
 1208              		.loc 1 520 1 view .LVU424
 1209 0046 08BD     		pop	{r3, pc}
 1210              	.L78:
 1211              	.LBB23:
 506:../../init/init.c **** 	}
 1212              		.loc 1 506 2 is_stmt 1 view .LVU425
 1213 0048 FFF7FEFF 		bl	Error_Handler
 1214              	.LVL48:
 1215 004c EDE7     		b	.L73
 1216              	.L79:
 1217              	.LBE23:
 1218              	.LBB24:
 510:../../init/init.c **** 	}
 1219              		.loc 1 510 2 view .LVU426
 1220 004e FFF7FEFF 		bl	Error_Handler
 1221              	.LVL49:
 1222 0052 EFE7     		b	.L74
 1223              	.L80:
 1224              	.LBE24:
 1225              	.LBB25:
 514:../../init/init.c **** 	}
 1226              		.loc 1 514 2 view .LVU427
 1227 0054 FFF7FEFF 		bl	Error_Handler
 1228              	.LVL50:
 1229 0058 F1E7     		b	.L75
 1230              	.L81:
 1231              	.LBE25:
 1232              	.LBB26:
 518:../../init/init.c **** 	}
 1233              		.loc 1 518 2 view .LVU428
 1234 005a FFF7FEFF 		bl	Error_Handler
 1235              	.LVL51:
ARM GAS  /tmp/ccta2Cae.s 			page 32


 1236              	.LBE26:
 1237              		.loc 1 520 1 is_stmt 0 view .LVU429
 1238 005e F2E7     		b	.L72
 1239              	.L83:
 1240              		.align	2
 1241              	.L82:
 1242 0060 00000000 		.word	huart4
 1243 0064 004C0040 		.word	1073761280
 1244              		.cfi_endproc
 1245              	.LFE341:
 1247              		.section	.text.GPIO_Init,"ax",%progbits
 1248              		.align	1
 1249              		.global	GPIO_Init
 1250              		.syntax unified
 1251              		.thumb
 1252              		.thumb_func
 1254              	GPIO_Init:
 1255              	.LFB342:
 521:../../init/init.c **** 
 522:../../init/init.c **** 
 523:../../init/init.c **** /*******************************************************************************
 524:../../init/init.c **** *                                                                              *
 525:../../init/init.c **** * PROCEDURE:                                                                   *
 526:../../init/init.c **** * 		GPIO_Init                                                              * 
 527:../../init/init.c **** *                                                                              *
 528:../../init/init.c **** * DESCRIPTION:                                                                 * 
 529:../../init/init.c **** * 		Initializes all GPIO pins and sets alternate functions                 *
 530:../../init/init.c **** *                                                                              *
 531:../../init/init.c **** *******************************************************************************/
 532:../../init/init.c **** void GPIO_Init
 533:../../init/init.c **** 	(
 534:../../init/init.c ****  	void
 535:../../init/init.c **** 	)
 536:../../init/init.c **** {
 1256              		.loc 1 536 1 is_stmt 1 view -0
 1257              		.cfi_startproc
 1258              		@ args = 0, pretend = 0, frame = 48
 1259              		@ frame_needed = 0, uses_anonymous_args = 0
 1260 0000 2DE9F041 		push	{r4, r5, r6, r7, r8, lr}
 1261              	.LCFI21:
 1262              		.cfi_def_cfa_offset 24
 1263              		.cfi_offset 4, -24
 1264              		.cfi_offset 5, -20
 1265              		.cfi_offset 6, -16
 1266              		.cfi_offset 7, -12
 1267              		.cfi_offset 8, -8
 1268              		.cfi_offset 14, -4
 1269 0004 8CB0     		sub	sp, sp, #48
 1270              	.LCFI22:
 1271              		.cfi_def_cfa_offset 72
 537:../../init/init.c **** /* GPIO Initialization Struct */
 538:../../init/init.c **** GPIO_InitTypeDef GPIO_InitStruct = {0};
 1272              		.loc 1 538 1 view .LVU431
 1273              		.loc 1 538 18 is_stmt 0 view .LVU432
 1274 0006 0024     		movs	r4, #0
 1275 0008 0794     		str	r4, [sp, #28]
 1276 000a 0894     		str	r4, [sp, #32]
ARM GAS  /tmp/ccta2Cae.s 			page 33


 1277 000c 0994     		str	r4, [sp, #36]
 1278 000e 0A94     		str	r4, [sp, #40]
 1279 0010 0B94     		str	r4, [sp, #44]
 539:../../init/init.c **** 
 540:../../init/init.c **** /* GPIO Ports Clock Enable */
 541:../../init/init.c **** __HAL_RCC_GPIOA_CLK_ENABLE();
 1280              		.loc 1 541 1 is_stmt 1 view .LVU433
 1281              	.LBB27:
 1282              		.loc 1 541 1 view .LVU434
 1283              		.loc 1 541 1 view .LVU435
 1284 0012 654B     		ldr	r3, .L86
 1285 0014 D3F8E020 		ldr	r2, [r3, #224]
 1286 0018 42F00102 		orr	r2, r2, #1
 1287 001c C3F8E020 		str	r2, [r3, #224]
 1288              		.loc 1 541 1 view .LVU436
 1289 0020 D3F8E020 		ldr	r2, [r3, #224]
 1290 0024 02F00102 		and	r2, r2, #1
 1291 0028 0192     		str	r2, [sp, #4]
 1292              		.loc 1 541 1 view .LVU437
 1293 002a 019A     		ldr	r2, [sp, #4]
 1294              	.LBE27:
 1295              		.loc 1 541 1 view .LVU438
 542:../../init/init.c **** __HAL_RCC_GPIOB_CLK_ENABLE();
 1296              		.loc 1 542 1 view .LVU439
 1297              	.LBB28:
 1298              		.loc 1 542 1 view .LVU440
 1299              		.loc 1 542 1 view .LVU441
 1300 002c D3F8E020 		ldr	r2, [r3, #224]
 1301 0030 42F00202 		orr	r2, r2, #2
 1302 0034 C3F8E020 		str	r2, [r3, #224]
 1303              		.loc 1 542 1 view .LVU442
 1304 0038 D3F8E020 		ldr	r2, [r3, #224]
 1305 003c 02F00202 		and	r2, r2, #2
 1306 0040 0292     		str	r2, [sp, #8]
 1307              		.loc 1 542 1 view .LVU443
 1308 0042 029A     		ldr	r2, [sp, #8]
 1309              	.LBE28:
 1310              		.loc 1 542 1 view .LVU444
 543:../../init/init.c **** __HAL_RCC_GPIOC_CLK_ENABLE();
 1311              		.loc 1 543 1 view .LVU445
 1312              	.LBB29:
 1313              		.loc 1 543 1 view .LVU446
 1314              		.loc 1 543 1 view .LVU447
 1315 0044 D3F8E020 		ldr	r2, [r3, #224]
 1316 0048 42F00402 		orr	r2, r2, #4
 1317 004c C3F8E020 		str	r2, [r3, #224]
 1318              		.loc 1 543 1 view .LVU448
 1319 0050 D3F8E020 		ldr	r2, [r3, #224]
 1320 0054 02F00402 		and	r2, r2, #4
 1321 0058 0392     		str	r2, [sp, #12]
 1322              		.loc 1 543 1 view .LVU449
 1323 005a 039A     		ldr	r2, [sp, #12]
 1324              	.LBE29:
 1325              		.loc 1 543 1 view .LVU450
 544:../../init/init.c **** __HAL_RCC_GPIOD_CLK_ENABLE();
 1326              		.loc 1 544 1 view .LVU451
 1327              	.LBB30:
ARM GAS  /tmp/ccta2Cae.s 			page 34


 1328              		.loc 1 544 1 view .LVU452
 1329              		.loc 1 544 1 view .LVU453
 1330 005c D3F8E020 		ldr	r2, [r3, #224]
 1331 0060 42F00802 		orr	r2, r2, #8
 1332 0064 C3F8E020 		str	r2, [r3, #224]
 1333              		.loc 1 544 1 view .LVU454
 1334 0068 D3F8E020 		ldr	r2, [r3, #224]
 1335 006c 02F00802 		and	r2, r2, #8
 1336 0070 0492     		str	r2, [sp, #16]
 1337              		.loc 1 544 1 view .LVU455
 1338 0072 049A     		ldr	r2, [sp, #16]
 1339              	.LBE30:
 1340              		.loc 1 544 1 view .LVU456
 545:../../init/init.c **** __HAL_RCC_GPIOE_CLK_ENABLE();
 1341              		.loc 1 545 1 view .LVU457
 1342              	.LBB31:
 1343              		.loc 1 545 1 view .LVU458
 1344              		.loc 1 545 1 view .LVU459
 1345 0074 D3F8E020 		ldr	r2, [r3, #224]
 1346 0078 42F01002 		orr	r2, r2, #16
 1347 007c C3F8E020 		str	r2, [r3, #224]
 1348              		.loc 1 545 1 view .LVU460
 1349 0080 D3F8E020 		ldr	r2, [r3, #224]
 1350 0084 02F01002 		and	r2, r2, #16
 1351 0088 0592     		str	r2, [sp, #20]
 1352              		.loc 1 545 1 view .LVU461
 1353 008a 059A     		ldr	r2, [sp, #20]
 1354              	.LBE31:
 1355              		.loc 1 545 1 view .LVU462
 546:../../init/init.c **** __HAL_RCC_GPIOH_CLK_ENABLE();
 1356              		.loc 1 546 1 view .LVU463
 1357              	.LBB32:
 1358              		.loc 1 546 1 view .LVU464
 1359              		.loc 1 546 1 view .LVU465
 1360 008c D3F8E020 		ldr	r2, [r3, #224]
 1361 0090 42F08002 		orr	r2, r2, #128
 1362 0094 C3F8E020 		str	r2, [r3, #224]
 1363              		.loc 1 546 1 view .LVU466
 1364 0098 D3F8E030 		ldr	r3, [r3, #224]
 1365 009c 03F08003 		and	r3, r3, #128
 1366 00a0 0693     		str	r3, [sp, #24]
 1367              		.loc 1 546 1 view .LVU467
 1368 00a2 069B     		ldr	r3, [sp, #24]
 1369              	.LBE32:
 1370              		.loc 1 546 1 view .LVU468
 547:../../init/init.c **** 
 548:../../init/init.c **** 
 549:../../init/init.c **** /*--------------------------- LED MCU PINS -----------------------------------*/
 550:../../init/init.c **** 
 551:../../init/init.c **** /* Configure GPIO pin Output Level */
 552:../../init/init.c **** HAL_GPIO_WritePin(
 1371              		.loc 1 552 1 view .LVU469
 1372 00a4 414E     		ldr	r6, .L86+4
 1373 00a6 0122     		movs	r2, #1
 1374 00a8 4FF4E051 		mov	r1, #7168
 1375 00ac 3046     		mov	r0, r6
 1376 00ae FFF7FEFF 		bl	HAL_GPIO_WritePin
ARM GAS  /tmp/ccta2Cae.s 			page 35


 1377              	.LVL52:
 553:../../init/init.c ****                  STATUS_GPIO_PORT, 
 554:../../init/init.c ****                  STATUS_R_PIN | 
 555:../../init/init.c ****                  STATUS_B_PIN | 
 556:../../init/init.c ****                  STATUS_G_PIN ,
 557:../../init/init.c ****                  GPIO_PIN_SET
 558:../../init/init.c ****                  );
 559:../../init/init.c **** 
 560:../../init/init.c **** /* Configure GPIO pin : PE2 --> Status LED pin */
 561:../../init/init.c **** GPIO_InitStruct.Pin   = STATUS_R_PIN | 
 1378              		.loc 1 561 1 view .LVU470
 1379              		.loc 1 561 23 is_stmt 0 view .LVU471
 1380 00b2 4FF4E053 		mov	r3, #7168
 1381 00b6 0793     		str	r3, [sp, #28]
 562:../../init/init.c ****                         STATUS_B_PIN | 
 563:../../init/init.c ****                         STATUS_G_PIN;
 564:../../init/init.c **** GPIO_InitStruct.Mode  = GPIO_MODE_OUTPUT_OD; /* open-drain output   */
 1382              		.loc 1 564 1 is_stmt 1 view .LVU472
 1383              		.loc 1 564 23 is_stmt 0 view .LVU473
 1384 00b8 1123     		movs	r3, #17
 1385 00ba 0893     		str	r3, [sp, #32]
 565:../../init/init.c **** GPIO_InitStruct.Pull  = GPIO_NOPULL;         /* no pull up resistor */
 1386              		.loc 1 565 1 is_stmt 1 view .LVU474
 1387              		.loc 1 565 23 is_stmt 0 view .LVU475
 1388 00bc 0994     		str	r4, [sp, #36]
 566:../../init/init.c **** GPIO_InitStruct.Speed = GPIO_SPEED_FREQ_LOW; /* Low Frequency       */
 1389              		.loc 1 566 1 is_stmt 1 view .LVU476
 1390              		.loc 1 566 23 is_stmt 0 view .LVU477
 1391 00be 0A94     		str	r4, [sp, #40]
 567:../../init/init.c **** HAL_GPIO_Init(STATUS_GPIO_PORT, &GPIO_InitStruct);      /* Write to registers  */
 1392              		.loc 1 567 1 is_stmt 1 view .LVU478
 1393 00c0 07A9     		add	r1, sp, #28
 1394 00c2 3046     		mov	r0, r6
 1395 00c4 FFF7FEFF 		bl	HAL_GPIO_Init
 1396              	.LVL53:
 568:../../init/init.c **** 
 569:../../init/init.c **** 
 570:../../init/init.c **** /*------------------------- IGNITION MCU PIN ---------------------------------*/
 571:../../init/init.c **** 
 572:../../init/init.c **** /* Configure Output Level */
 573:../../init/init.c **** HAL_GPIO_WritePin(FIRE_GPIO_PORT, FIRE_PIN, GPIO_PIN_RESET);
 1397              		.loc 1 573 1 view .LVU479
 1398 00c8 2246     		mov	r2, r4
 1399 00ca 4021     		movs	r1, #64
 1400 00cc 3046     		mov	r0, r6
 1401 00ce FFF7FEFF 		bl	HAL_GPIO_WritePin
 1402              	.LVL54:
 574:../../init/init.c **** 
 575:../../init/init.c **** /* Configure pin */
 576:../../init/init.c **** GPIO_InitStruct.Pin   = FIRE_PIN;
 1403              		.loc 1 576 1 view .LVU480
 1404              		.loc 1 576 23 is_stmt 0 view .LVU481
 1405 00d2 4023     		movs	r3, #64
 1406 00d4 0793     		str	r3, [sp, #28]
 577:../../init/init.c **** GPIO_InitStruct.Mode  = GPIO_MODE_OUTPUT_PP; /* push-pull output    */
 1407              		.loc 1 577 1 is_stmt 1 view .LVU482
 1408              		.loc 1 577 23 is_stmt 0 view .LVU483
ARM GAS  /tmp/ccta2Cae.s 			page 36


 1409 00d6 0125     		movs	r5, #1
 1410 00d8 0895     		str	r5, [sp, #32]
 578:../../init/init.c **** GPIO_InitStruct.Pull  = GPIO_NOPULL;         /* no pull up resistor */
 1411              		.loc 1 578 1 is_stmt 1 view .LVU484
 1412              		.loc 1 578 23 is_stmt 0 view .LVU485
 1413 00da 0994     		str	r4, [sp, #36]
 579:../../init/init.c **** GPIO_InitStruct.Speed = GPIO_SPEED_FREQ_LOW; /* Low Frequency       */
 1414              		.loc 1 579 1 is_stmt 1 view .LVU486
 1415              		.loc 1 579 23 is_stmt 0 view .LVU487
 1416 00dc 0A94     		str	r4, [sp, #40]
 580:../../init/init.c **** HAL_GPIO_Init(GPIOE, &GPIO_InitStruct);      /* Write to registers  */
 1417              		.loc 1 580 1 is_stmt 1 view .LVU488
 1418 00de 07A9     		add	r1, sp, #28
 1419 00e0 3046     		mov	r0, r6
 1420 00e2 FFF7FEFF 		bl	HAL_GPIO_Init
 1421              	.LVL55:
 581:../../init/init.c **** 
 582:../../init/init.c **** 
 583:../../init/init.c **** /*--------------------- IGNITION CONTINUITY MCU PIN --------------------------*/
 584:../../init/init.c **** 
 585:../../init/init.c **** /* Configure pin */
 586:../../init/init.c **** GPIO_InitStruct.Pin   = E_CONT_PIN   |
 1422              		.loc 1 586 1 view .LVU489
 1423              		.loc 1 586 23 is_stmt 0 view .LVU490
 1424 00e6 4FF46073 		mov	r3, #896
 1425 00ea 0793     		str	r3, [sp, #28]
 587:../../init/init.c ****                         NOZ_CONT_PIN |
 588:../../init/init.c ****                         SP_CONT_PIN;
 589:../../init/init.c **** GPIO_InitStruct.Mode  = GPIO_MODE_INPUT;           /* push-pull output    */
 1426              		.loc 1 589 1 is_stmt 1 view .LVU491
 1427              		.loc 1 589 23 is_stmt 0 view .LVU492
 1428 00ec 0894     		str	r4, [sp, #32]
 590:../../init/init.c **** GPIO_InitStruct.Pull  = GPIO_NOPULL;               /* no pull up resistor */
 1429              		.loc 1 590 1 is_stmt 1 view .LVU493
 1430              		.loc 1 590 23 is_stmt 0 view .LVU494
 1431 00ee 0994     		str	r4, [sp, #36]
 591:../../init/init.c **** GPIO_InitStruct.Speed = GPIO_SPEED_FREQ_LOW;       /* Low Frequency       */
 1432              		.loc 1 591 1 is_stmt 1 view .LVU495
 1433              		.loc 1 591 23 is_stmt 0 view .LVU496
 1434 00f0 0A94     		str	r4, [sp, #40]
 592:../../init/init.c **** HAL_GPIO_Init(E_CONT_GPIO_PORT, &GPIO_InitStruct); /* Write to registers  */
 1435              		.loc 1 592 1 is_stmt 1 view .LVU497
 1436 00f2 07A9     		add	r1, sp, #28
 1437 00f4 3046     		mov	r0, r6
 1438 00f6 FFF7FEFF 		bl	HAL_GPIO_Init
 1439              	.LVL56:
 593:../../init/init.c **** 
 594:../../init/init.c **** 
 595:../../init/init.c **** /*----------------------- 5V SOURCE INDICATION PIN ----------------------------*/
 596:../../init/init.c **** 
 597:../../init/init.c **** /* Configure pin */
 598:../../init/init.c **** GPIO_InitStruct.Pin   = PWR_SRC_PIN;
 1440              		.loc 1 598 1 view .LVU498
 1441              		.loc 1 598 23 is_stmt 0 view .LVU499
 1442 00fa 0795     		str	r5, [sp, #28]
 599:../../init/init.c **** GPIO_InitStruct.Mode  = GPIO_MODE_INPUT;            /* push-pull output    */
 1443              		.loc 1 599 1 is_stmt 1 view .LVU500
ARM GAS  /tmp/ccta2Cae.s 			page 37


 1444              		.loc 1 599 23 is_stmt 0 view .LVU501
 1445 00fc 0894     		str	r4, [sp, #32]
 600:../../init/init.c **** GPIO_InitStruct.Pull  = GPIO_NOPULL;                /* no pull up resistor */
 1446              		.loc 1 600 1 is_stmt 1 view .LVU502
 1447              		.loc 1 600 23 is_stmt 0 view .LVU503
 1448 00fe 0994     		str	r4, [sp, #36]
 601:../../init/init.c **** GPIO_InitStruct.Speed = GPIO_SPEED_FREQ_LOW;        /* Low Frequency       */
 1449              		.loc 1 601 1 is_stmt 1 view .LVU504
 1450              		.loc 1 601 23 is_stmt 0 view .LVU505
 1451 0100 0A94     		str	r4, [sp, #40]
 602:../../init/init.c **** HAL_GPIO_Init(PWR_SRC_GPIO_PORT, &GPIO_InitStruct); /* Write to registers  */
 1452              		.loc 1 602 1 is_stmt 1 view .LVU506
 1453 0102 07A9     		add	r1, sp, #28
 1454 0104 3046     		mov	r0, r6
 1455 0106 FFF7FEFF 		bl	HAL_GPIO_Init
 1456              	.LVL57:
 603:../../init/init.c **** 
 604:../../init/init.c **** 
 605:../../init/init.c **** /*--------------------------- FLASH CHIP PINS ---------------------------------*/
 606:../../init/init.c **** 
 607:../../init/init.c **** /* SPI Chip Select Pin */
 608:../../init/init.c **** 
 609:../../init/init.c **** /*Configure GPIO pin Output Level */
 610:../../init/init.c **** HAL_GPIO_WritePin(FLASH_SS_GPIO_PORT, FLASH_SS_PIN, GPIO_PIN_SET);
 1457              		.loc 1 610 1 view .LVU507
 1458 010a 294F     		ldr	r7, .L86+8
 1459 010c 2A46     		mov	r2, r5
 1460 010e 4FF48051 		mov	r1, #4096
 1461 0112 3846     		mov	r0, r7
 1462 0114 FFF7FEFF 		bl	HAL_GPIO_WritePin
 1463              	.LVL58:
 611:../../init/init.c **** 
 612:../../init/init.c **** /*Configure GPIO pin : PB12 */
 613:../../init/init.c **** GPIO_InitStruct.Pin   = FLASH_SS_PIN;
 1464              		.loc 1 613 1 view .LVU508
 1465              		.loc 1 613 23 is_stmt 0 view .LVU509
 1466 0118 4FF48058 		mov	r8, #4096
 1467 011c CDF81C80 		str	r8, [sp, #28]
 614:../../init/init.c **** GPIO_InitStruct.Mode  = GPIO_MODE_OUTPUT_PP;
 1468              		.loc 1 614 1 is_stmt 1 view .LVU510
 1469              		.loc 1 614 23 is_stmt 0 view .LVU511
 1470 0120 0895     		str	r5, [sp, #32]
 615:../../init/init.c **** GPIO_InitStruct.Pull  = GPIO_NOPULL;
 1471              		.loc 1 615 1 is_stmt 1 view .LVU512
 1472              		.loc 1 615 23 is_stmt 0 view .LVU513
 1473 0122 0994     		str	r4, [sp, #36]
 616:../../init/init.c **** GPIO_InitStruct.Speed = GPIO_SPEED_FREQ_LOW;
 1474              		.loc 1 616 1 is_stmt 1 view .LVU514
 1475              		.loc 1 616 23 is_stmt 0 view .LVU515
 1476 0124 0A94     		str	r4, [sp, #40]
 617:../../init/init.c **** HAL_GPIO_Init(FLASH_SS_GPIO_PORT, &GPIO_InitStruct);
 1477              		.loc 1 617 1 is_stmt 1 view .LVU516
 1478 0126 07A9     		add	r1, sp, #28
 1479 0128 3846     		mov	r0, r7
 1480 012a FFF7FEFF 		bl	HAL_GPIO_Init
 1481              	.LVL59:
 618:../../init/init.c **** 
ARM GAS  /tmp/ccta2Cae.s 			page 38


 619:../../init/init.c **** /* Flash write protect Pin */
 620:../../init/init.c **** 
 621:../../init/init.c **** /*Configure GPIO pin Output Level */
 622:../../init/init.c **** HAL_GPIO_WritePin(FLASH_WP_GPIO_PORT, FLASH_WP_PIN, GPIO_PIN_RESET);
 1482              		.loc 1 622 1 view .LVU517
 1483 012e 07F50067 		add	r7, r7, #2048
 1484 0132 2246     		mov	r2, r4
 1485 0134 4146     		mov	r1, r8
 1486 0136 3846     		mov	r0, r7
 1487 0138 FFF7FEFF 		bl	HAL_GPIO_WritePin
 1488              	.LVL60:
 623:../../init/init.c **** 
 624:../../init/init.c **** /*Configure GPIO pin : PD12 */
 625:../../init/init.c **** GPIO_InitStruct.Pin   = FLASH_WP_PIN;
 1489              		.loc 1 625 1 view .LVU518
 1490              		.loc 1 625 23 is_stmt 0 view .LVU519
 1491 013c CDF81C80 		str	r8, [sp, #28]
 626:../../init/init.c **** GPIO_InitStruct.Mode  = GPIO_MODE_OUTPUT_PP;
 1492              		.loc 1 626 1 is_stmt 1 view .LVU520
 1493              		.loc 1 626 23 is_stmt 0 view .LVU521
 1494 0140 0895     		str	r5, [sp, #32]
 627:../../init/init.c **** GPIO_InitStruct.Pull  = GPIO_NOPULL;
 1495              		.loc 1 627 1 is_stmt 1 view .LVU522
 1496              		.loc 1 627 23 is_stmt 0 view .LVU523
 1497 0142 0994     		str	r4, [sp, #36]
 628:../../init/init.c **** GPIO_InitStruct.Speed = GPIO_SPEED_FREQ_LOW;
 1498              		.loc 1 628 1 is_stmt 1 view .LVU524
 1499              		.loc 1 628 23 is_stmt 0 view .LVU525
 1500 0144 0A94     		str	r4, [sp, #40]
 629:../../init/init.c **** HAL_GPIO_Init(FLASH_WP_GPIO_PORT, &GPIO_InitStruct);
 1501              		.loc 1 629 1 is_stmt 1 view .LVU526
 1502 0146 07A9     		add	r1, sp, #28
 1503 0148 3846     		mov	r0, r7
 1504 014a FFF7FEFF 		bl	HAL_GPIO_Init
 1505              	.LVL61:
 630:../../init/init.c **** 
 631:../../init/init.c **** /* Flash hold pin */
 632:../../init/init.c **** 
 633:../../init/init.c **** /*Configure GPIO pin Output Level */
 634:../../init/init.c **** HAL_GPIO_WritePin(FLASH_HOLD_GPIO_PORT, FLASH_HOLD_PIN, GPIO_PIN_SET);
 1506              		.loc 1 634 1 view .LVU527
 1507 014e 2A46     		mov	r2, r5
 1508 0150 4FF40051 		mov	r1, #8192
 1509 0154 3846     		mov	r0, r7
 1510 0156 FFF7FEFF 		bl	HAL_GPIO_WritePin
 1511              	.LVL62:
 635:../../init/init.c **** 
 636:../../init/init.c **** /*Configure GPIO pin : PD13 */
 637:../../init/init.c **** GPIO_InitStruct.Pin   = FLASH_HOLD_PIN;
 1512              		.loc 1 637 1 view .LVU528
 1513              		.loc 1 637 23 is_stmt 0 view .LVU529
 1514 015a 4FF40053 		mov	r3, #8192
 1515 015e 0793     		str	r3, [sp, #28]
 638:../../init/init.c **** GPIO_InitStruct.Mode  = GPIO_MODE_OUTPUT_PP;
 1516              		.loc 1 638 1 is_stmt 1 view .LVU530
 1517              		.loc 1 638 23 is_stmt 0 view .LVU531
 1518 0160 0895     		str	r5, [sp, #32]
ARM GAS  /tmp/ccta2Cae.s 			page 39


 639:../../init/init.c **** GPIO_InitStruct.Pull  = GPIO_NOPULL;
 1519              		.loc 1 639 1 is_stmt 1 view .LVU532
 1520              		.loc 1 639 23 is_stmt 0 view .LVU533
 1521 0162 0994     		str	r4, [sp, #36]
 640:../../init/init.c **** GPIO_InitStruct.Speed = GPIO_SPEED_FREQ_LOW;
 1522              		.loc 1 640 1 is_stmt 1 view .LVU534
 1523              		.loc 1 640 23 is_stmt 0 view .LVU535
 1524 0164 0A94     		str	r4, [sp, #40]
 641:../../init/init.c **** HAL_GPIO_Init(FLASH_HOLD_GPIO_PORT, &GPIO_InitStruct);
 1525              		.loc 1 641 1 is_stmt 1 view .LVU536
 1526 0166 07A9     		add	r1, sp, #28
 1527 0168 3846     		mov	r0, r7
 1528 016a FFF7FEFF 		bl	HAL_GPIO_Init
 1529              	.LVL63:
 642:../../init/init.c **** 
 643:../../init/init.c **** 
 644:../../init/init.c **** /*--------------------------- PRESSURE TRANSDUCER PINS ------------------------*/
 645:../../init/init.c **** 
 646:../../init/init.c **** /* Pressure transducer gain and multiplexor pins */
 647:../../init/init.c **** HAL_GPIO_WritePin      (
 1530              		.loc 1 647 1 view .LVU537
 1531 016e 2246     		mov	r2, r4
 1532 0170 40F6FB71 		movw	r1, #4091
 1533 0174 3846     		mov	r0, r7
 1534 0176 FFF7FEFF 		bl	HAL_GPIO_WritePin
 1535              	.LVL64:
 648:../../init/init.c ****                         PRESSURE_GPIO_PORT  , 
 649:../../init/init.c ****                         PRESSURE_GAIN0_PIN | 
 650:../../init/init.c ****                         PRESSURE_GAIN1_PIN | 
 651:../../init/init.c ****                         PRESSURE_GAIN2_PIN | 
 652:../../init/init.c ****                         PRESSURE_GAIN3_PIN | 
 653:../../init/init.c ****                         PRESSURE_GAIN4_PIN | 
 654:../../init/init.c ****                         PRESSURE_GAIN5_PIN | 
 655:../../init/init.c ****                         PRESSURE_GAIN6_PIN | 
 656:../../init/init.c ****                         PRESSURE_GAIN7_PIN | 
 657:../../init/init.c ****                         PRESSURE_MUXA_PIN  |
 658:../../init/init.c ****                         PRESSURE_MUXB_PIN  |
 659:../../init/init.c ****                         PRESSURE_MUXC_PIN   , 
 660:../../init/init.c ****                         GPIO_PIN_RESET 
 661:../../init/init.c ****                         );
 662:../../init/init.c **** GPIO_InitStruct.Pin   = PRESSURE_GAIN0_PIN | 
 1536              		.loc 1 662 1 view .LVU538
 1537              		.loc 1 662 23 is_stmt 0 view .LVU539
 1538 017a 40F6FB73 		movw	r3, #4091
 1539 017e 0793     		str	r3, [sp, #28]
 663:../../init/init.c ****                         PRESSURE_GAIN1_PIN | 
 664:../../init/init.c ****                         PRESSURE_GAIN2_PIN | 
 665:../../init/init.c ****                         PRESSURE_GAIN3_PIN | 
 666:../../init/init.c ****                         PRESSURE_GAIN4_PIN | 
 667:../../init/init.c ****                         PRESSURE_GAIN5_PIN | 
 668:../../init/init.c ****                         PRESSURE_GAIN6_PIN | 
 669:../../init/init.c ****                         PRESSURE_GAIN7_PIN | 
 670:../../init/init.c ****                         PRESSURE_MUXA_PIN  |
 671:../../init/init.c ****                         PRESSURE_MUXB_PIN  |
 672:../../init/init.c ****                         PRESSURE_MUXC_PIN;
 673:../../init/init.c **** GPIO_InitStruct.Mode  = GPIO_MODE_OUTPUT_PP;
 1540              		.loc 1 673 1 is_stmt 1 view .LVU540
ARM GAS  /tmp/ccta2Cae.s 			page 40


 1541              		.loc 1 673 23 is_stmt 0 view .LVU541
 1542 0180 0895     		str	r5, [sp, #32]
 674:../../init/init.c **** GPIO_InitStruct.Pull  = GPIO_NOPULL;
 1543              		.loc 1 674 1 is_stmt 1 view .LVU542
 1544              		.loc 1 674 23 is_stmt 0 view .LVU543
 1545 0182 0994     		str	r4, [sp, #36]
 675:../../init/init.c **** GPIO_InitStruct.Speed = GPIO_SPEED_FREQ_VERY_HIGH;
 1546              		.loc 1 675 1 is_stmt 1 view .LVU544
 1547              		.loc 1 675 23 is_stmt 0 view .LVU545
 1548 0184 0323     		movs	r3, #3
 1549 0186 0A93     		str	r3, [sp, #40]
 676:../../init/init.c **** HAL_GPIO_Init( PRESSURE_GPIO_PORT, &GPIO_InitStruct );
 1550              		.loc 1 676 1 is_stmt 1 view .LVU546
 1551 0188 07A9     		add	r1, sp, #28
 1552 018a 3846     		mov	r0, r7
 1553 018c FFF7FEFF 		bl	HAL_GPIO_Init
 1554              	.LVL65:
 677:../../init/init.c **** 
 678:../../init/init.c **** 
 679:../../init/init.c **** /*----------------------------- THERMOCOUPLE PINS ----------------------------*/
 680:../../init/init.c **** 
 681:../../init/init.c **** /* Thermocouple alert pins */
 682:../../init/init.c **** GPIO_InitStruct.Pin  = THERMO_ALERT_PIN | THERMO_OC_PIN | THERMO_SC_PIN;
 1555              		.loc 1 682 1 view .LVU547
 1556              		.loc 1 682 22 is_stmt 0 view .LVU548
 1557 0190 4FF46043 		mov	r3, #57344
 1558 0194 0793     		str	r3, [sp, #28]
 683:../../init/init.c **** GPIO_InitStruct.Mode = GPIO_MODE_INPUT;
 1559              		.loc 1 683 1 is_stmt 1 view .LVU549
 1560              		.loc 1 683 22 is_stmt 0 view .LVU550
 1561 0196 0894     		str	r4, [sp, #32]
 684:../../init/init.c **** GPIO_InitStruct.Pull = GPIO_NOPULL;
 1562              		.loc 1 684 1 is_stmt 1 view .LVU551
 1563              		.loc 1 684 22 is_stmt 0 view .LVU552
 1564 0198 0994     		str	r4, [sp, #36]
 685:../../init/init.c **** HAL_GPIO_Init( THERMO_ALERT_GPIO_PORT, &GPIO_InitStruct );
 1565              		.loc 1 685 1 is_stmt 1 view .LVU553
 1566 019a 07A9     		add	r1, sp, #28
 1567 019c 3046     		mov	r0, r6
 1568 019e FFF7FEFF 		bl	HAL_GPIO_Init
 1569              	.LVL66:
 686:../../init/init.c **** 
 687:../../init/init.c **** } /* GPIO_Init */
 1570              		.loc 1 687 1 is_stmt 0 view .LVU554
 1571 01a2 0CB0     		add	sp, sp, #48
 1572              	.LCFI23:
 1573              		.cfi_def_cfa_offset 24
 1574              		@ sp needed
 1575 01a4 BDE8F081 		pop	{r4, r5, r6, r7, r8, pc}
 1576              	.L87:
 1577              		.align	2
 1578              	.L86:
 1579 01a8 00440258 		.word	1476543488
 1580 01ac 00100258 		.word	1476530176
 1581 01b0 00040258 		.word	1476527104
 1582              		.cfi_endproc
 1583              	.LFE342:
ARM GAS  /tmp/ccta2Cae.s 			page 41


 1585              		.text
 1586              	.Letext0:
 1587              		.file 2 "/usr/arm-none-eabi/include/machine/_default_types.h"
 1588              		.file 3 "/usr/arm-none-eabi/include/sys/_stdint.h"
 1589              		.file 4 "../../lib/Drivers/CMSIS/Device/ST/STM32H7xx/Include/stm32h750xx.h"
 1590              		.file 5 "../../lib/Drivers/CMSIS/Device/ST/STM32H7xx/Include/stm32h7xx.h"
 1591              		.file 6 "../../lib/Drivers/STM32H7xx_HAL_Driver/Inc/stm32h7xx_hal_def.h"
 1592              		.file 7 "../../lib/Drivers/STM32H7xx_HAL_Driver/Inc/stm32h7xx_hal_rcc.h"
 1593              		.file 8 "../../lib/Drivers/STM32H7xx_HAL_Driver/Inc/stm32h7xx_hal_rcc_ex.h"
 1594              		.file 9 "../../lib/Drivers/STM32H7xx_HAL_Driver/Inc/stm32h7xx_hal_gpio.h"
 1595              		.file 10 "../../lib/Drivers/STM32H7xx_HAL_Driver/Inc/stm32h7xx_hal_dma.h"
 1596              		.file 11 "../../lib/Drivers/STM32H7xx_HAL_Driver/Inc/stm32h7xx_hal_adc.h"
 1597              		.file 12 "../../lib/Drivers/STM32H7xx_HAL_Driver/Inc/stm32h7xx_hal_adc_ex.h"
 1598              		.file 13 "../../lib/Drivers/STM32H7xx_HAL_Driver/Inc/stm32h7xx_hal_i2c.h"
 1599              		.file 14 "../../lib/Drivers/STM32H7xx_HAL_Driver/Inc/stm32h7xx_hal_spi.h"
 1600              		.file 15 "../../lib/Drivers/STM32H7xx_HAL_Driver/Inc/stm32h7xx_hal_uart.h"
 1601              		.file 16 "../../lib/sdr_pin_defines_L0002.h"
 1602              		.file 17 "../../lib/Drivers/STM32H7xx_HAL_Driver/Inc/stm32h7xx_hal_uart_ex.h"
 1603              		.file 18 "../../lib/Drivers/STM32H7xx_HAL_Driver/Inc/stm32h7xx_hal_i2c_ex.h"
 1604              		.file 19 "../../lib/Drivers/STM32H7xx_HAL_Driver/Inc/stm32h7xx_hal_pwr_ex.h"
 1605              		.file 20 "<built-in>"
ARM GAS  /tmp/ccta2Cae.s 			page 42

