ARM GAS  /tmp/ccSPuacA.s 			page 1


   1              		.cpu cortex-m7
   2              		.arch armv7e-m
   3              		.fpu fpv5-d16
   4              		.eabi_attribute 28, 1
   5              		.eabi_attribute 20, 1
   6              		.eabi_attribute 21, 1
   7              		.eabi_attribute 23, 3
   8              		.eabi_attribute 24, 1
   9              		.eabi_attribute 25, 1
  10              		.eabi_attribute 26, 1
  11              		.eabi_attribute 30, 1
  12              		.eabi_attribute 34, 1
  13              		.eabi_attribute 18, 4
  14              		.file	"stm32h7xx_hal_msp.c"
  15              		.text
  16              	.Ltext0:
  17              		.cfi_sections	.debug_frame
  18              		.file 1 "../../init/config/Src/stm32h7xx_hal_msp.c"
  19              		.section	.text.HAL_MspInit,"ax",%progbits
  20              		.align	1
  21              		.global	HAL_MspInit
  22              		.syntax unified
  23              		.thumb
  24              		.thumb_func
  26              	HAL_MspInit:
  27              	.LFB333:
   1:../../init/config/Src/stm32h7xx_hal_msp.c **** /*******************************************************************************
   2:../../init/config/Src/stm32h7xx_hal_msp.c **** *                                                                              *
   3:../../init/config/Src/stm32h7xx_hal_msp.c **** * FILE:                                                                        *
   4:../../init/config/Src/stm32h7xx_hal_msp.c **** * 		stm32h7xx_hal_msp.c                                                    *
   5:../../init/config/Src/stm32h7xx_hal_msp.c **** *                                                                              *
   6:../../init/config/Src/stm32h7xx_hal_msp.c **** * DESCRIPTION:                                                                 *
   7:../../init/config/Src/stm32h7xx_hal_msp.c **** *		Contains implementation of MSP initialization and de-initialization    *
   8:../../init/config/Src/stm32h7xx_hal_msp.c **** *                routines                                                      *
   9:../../init/config/Src/stm32h7xx_hal_msp.c **** *                                                                              *
  10:../../init/config/Src/stm32h7xx_hal_msp.c **** *******************************************************************************/
  11:../../init/config/Src/stm32h7xx_hal_msp.c **** 
  12:../../init/config/Src/stm32h7xx_hal_msp.c **** 
  13:../../init/config/Src/stm32h7xx_hal_msp.c **** /*------------------------------------------------------------------------------
  14:../../init/config/Src/stm32h7xx_hal_msp.c ****  Standard Includes                                                              
  15:../../init/config/Src/stm32h7xx_hal_msp.c **** ------------------------------------------------------------------------------*/
  16:../../init/config/Src/stm32h7xx_hal_msp.c **** #include "main.h"
  17:../../init/config/Src/stm32h7xx_hal_msp.c **** 
  18:../../init/config/Src/stm32h7xx_hal_msp.c **** 
  19:../../init/config/Src/stm32h7xx_hal_msp.c **** /*------------------------------------------------------------------------------
  20:../../init/config/Src/stm32h7xx_hal_msp.c ****  Global Variables 
  21:../../init/config/Src/stm32h7xx_hal_msp.c **** ------------------------------------------------------------------------------*/
  22:../../init/config/Src/stm32h7xx_hal_msp.c **** static uint32_t HAL_RCC_ADC12_CLK_ENABLED = 0;
  23:../../init/config/Src/stm32h7xx_hal_msp.c **** 
  24:../../init/config/Src/stm32h7xx_hal_msp.c **** 
  25:../../init/config/Src/stm32h7xx_hal_msp.c **** /*******************************************************************************
  26:../../init/config/Src/stm32h7xx_hal_msp.c **** *                                                                              *
  27:../../init/config/Src/stm32h7xx_hal_msp.c **** * PROCEDURE:                                                                   *
  28:../../init/config/Src/stm32h7xx_hal_msp.c **** * 		HAL_MspInit                                                            *
  29:../../init/config/Src/stm32h7xx_hal_msp.c **** *                                                                              *
  30:../../init/config/Src/stm32h7xx_hal_msp.c **** * DESCRIPTION:                                                                 *
  31:../../init/config/Src/stm32h7xx_hal_msp.c **** *		Initializes the Global MSP                                             *
ARM GAS  /tmp/ccSPuacA.s 			page 2


  32:../../init/config/Src/stm32h7xx_hal_msp.c **** *                                                                              *
  33:../../init/config/Src/stm32h7xx_hal_msp.c **** *******************************************************************************/
  34:../../init/config/Src/stm32h7xx_hal_msp.c **** void HAL_MspInit
  35:../../init/config/Src/stm32h7xx_hal_msp.c **** 	(
  36:../../init/config/Src/stm32h7xx_hal_msp.c ****     void
  37:../../init/config/Src/stm32h7xx_hal_msp.c ****     )
  38:../../init/config/Src/stm32h7xx_hal_msp.c **** {
  28              		.loc 1 38 1 view -0
  29              		.cfi_startproc
  30              		@ args = 0, pretend = 0, frame = 8
  31              		@ frame_needed = 0, uses_anonymous_args = 0
  32              		@ link register save eliminated.
  33 0000 82B0     		sub	sp, sp, #8
  34              	.LCFI0:
  35              		.cfi_def_cfa_offset 8
  39:../../init/config/Src/stm32h7xx_hal_msp.c **** 
  40:../../init/config/Src/stm32h7xx_hal_msp.c ****   __HAL_RCC_SYSCFG_CLK_ENABLE();
  36              		.loc 1 40 3 view .LVU1
  37              	.LBB2:
  38              		.loc 1 40 3 view .LVU2
  39              		.loc 1 40 3 view .LVU3
  40 0002 074B     		ldr	r3, .L3
  41 0004 D3F8F420 		ldr	r2, [r3, #244]
  42 0008 42F00202 		orr	r2, r2, #2
  43 000c C3F8F420 		str	r2, [r3, #244]
  44              		.loc 1 40 3 view .LVU4
  45 0010 D3F8F430 		ldr	r3, [r3, #244]
  46 0014 03F00203 		and	r3, r3, #2
  47 0018 0193     		str	r3, [sp, #4]
  48              		.loc 1 40 3 view .LVU5
  49 001a 019B     		ldr	r3, [sp, #4]
  50              	.LBE2:
  51              		.loc 1 40 3 view .LVU6
  41:../../init/config/Src/stm32h7xx_hal_msp.c **** 
  42:../../init/config/Src/stm32h7xx_hal_msp.c ****   /* System interrupt init*/
  43:../../init/config/Src/stm32h7xx_hal_msp.c **** 
  44:../../init/config/Src/stm32h7xx_hal_msp.c **** } /* HAL_MspInit */
  52              		.loc 1 44 1 is_stmt 0 view .LVU7
  53 001c 02B0     		add	sp, sp, #8
  54              	.LCFI1:
  55              		.cfi_def_cfa_offset 0
  56              		@ sp needed
  57 001e 7047     		bx	lr
  58              	.L4:
  59              		.align	2
  60              	.L3:
  61 0020 00440258 		.word	1476543488
  62              		.cfi_endproc
  63              	.LFE333:
  65              		.section	.text.HAL_ADC_MspInit,"ax",%progbits
  66              		.align	1
  67              		.global	HAL_ADC_MspInit
  68              		.syntax unified
  69              		.thumb
  70              		.thumb_func
  72              	HAL_ADC_MspInit:
  73              	.LVL0:
ARM GAS  /tmp/ccSPuacA.s 			page 3


  74              	.LFB334:
  45:../../init/config/Src/stm32h7xx_hal_msp.c **** 
  46:../../init/config/Src/stm32h7xx_hal_msp.c **** 
  47:../../init/config/Src/stm32h7xx_hal_msp.c **** /*******************************************************************************
  48:../../init/config/Src/stm32h7xx_hal_msp.c **** *                                                                              *
  49:../../init/config/Src/stm32h7xx_hal_msp.c **** * PROCEDURE:                                                                   *
  50:../../init/config/Src/stm32h7xx_hal_msp.c **** * 		HAL_ADC_MspInit                                                        *
  51:../../init/config/Src/stm32h7xx_hal_msp.c **** *                                                                              *
  52:../../init/config/Src/stm32h7xx_hal_msp.c **** * DESCRIPTION:                                                                 *
  53:../../init/config/Src/stm32h7xx_hal_msp.c **** *		ADC MSP initialization                                                 *
  54:../../init/config/Src/stm32h7xx_hal_msp.c **** *                                                                              *
  55:../../init/config/Src/stm32h7xx_hal_msp.c **** *******************************************************************************/
  56:../../init/config/Src/stm32h7xx_hal_msp.c **** void HAL_ADC_MspInit
  57:../../init/config/Src/stm32h7xx_hal_msp.c **** 	(
  58:../../init/config/Src/stm32h7xx_hal_msp.c ****     ADC_HandleTypeDef* hadc
  59:../../init/config/Src/stm32h7xx_hal_msp.c ****     )
  60:../../init/config/Src/stm32h7xx_hal_msp.c **** {
  75              		.loc 1 60 1 is_stmt 1 view -0
  76              		.cfi_startproc
  77              		@ args = 0, pretend = 0, frame = 40
  78              		@ frame_needed = 0, uses_anonymous_args = 0
  79              		.loc 1 60 1 is_stmt 0 view .LVU9
  80 0000 00B5     		push	{lr}
  81              	.LCFI2:
  82              		.cfi_def_cfa_offset 4
  83              		.cfi_offset 14, -4
  84 0002 8BB0     		sub	sp, sp, #44
  85              	.LCFI3:
  86              		.cfi_def_cfa_offset 48
  61:../../init/config/Src/stm32h7xx_hal_msp.c **** /* Initialization Structs */
  62:../../init/config/Src/stm32h7xx_hal_msp.c **** GPIO_InitTypeDef         GPIO_InitStruct     = {0};
  87              		.loc 1 62 1 is_stmt 1 view .LVU10
  88              		.loc 1 62 26 is_stmt 0 view .LVU11
  89 0004 0023     		movs	r3, #0
  90 0006 0593     		str	r3, [sp, #20]
  91 0008 0693     		str	r3, [sp, #24]
  92 000a 0793     		str	r3, [sp, #28]
  93 000c 0893     		str	r3, [sp, #32]
  94 000e 0993     		str	r3, [sp, #36]
  63:../../init/config/Src/stm32h7xx_hal_msp.c **** 
  64:../../init/config/Src/stm32h7xx_hal_msp.c **** /* Pressure Transducer ADC Setup -> ADC1 */
  65:../../init/config/Src/stm32h7xx_hal_msp.c **** if ( hadc->Instance == ADC1 )
  95              		.loc 1 65 1 is_stmt 1 view .LVU12
  96              		.loc 1 65 10 is_stmt 0 view .LVU13
  97 0010 0368     		ldr	r3, [r0]
  98              		.loc 1 65 4 view .LVU14
  99 0012 2E4A     		ldr	r2, .L15
 100 0014 9342     		cmp	r3, r2
 101 0016 05D0     		beq	.L11
  66:../../init/config/Src/stm32h7xx_hal_msp.c **** 	{
  67:../../init/config/Src/stm32h7xx_hal_msp.c **** 	/* Peripheral clock enable */
  68:../../init/config/Src/stm32h7xx_hal_msp.c ****     HAL_RCC_ADC12_CLK_ENABLED++;
  69:../../init/config/Src/stm32h7xx_hal_msp.c ****     if( HAL_RCC_ADC12_CLK_ENABLED ==1 )
  70:../../init/config/Src/stm32h7xx_hal_msp.c **** 		{
  71:../../init/config/Src/stm32h7xx_hal_msp.c **** 		__HAL_RCC_ADC12_CLK_ENABLE();
  72:../../init/config/Src/stm32h7xx_hal_msp.c **** 		}
  73:../../init/config/Src/stm32h7xx_hal_msp.c **** 	__HAL_RCC_GPIOC_CLK_ENABLE();
ARM GAS  /tmp/ccSPuacA.s 			page 4


  74:../../init/config/Src/stm32h7xx_hal_msp.c **** 
  75:../../init/config/Src/stm32h7xx_hal_msp.c **** 	/**ADC1 GPIO Configuration
  76:../../init/config/Src/stm32h7xx_hal_msp.c **** 	PC0     ------> ADC1_INP10
  77:../../init/config/Src/stm32h7xx_hal_msp.c **** 	*/
  78:../../init/config/Src/stm32h7xx_hal_msp.c **** 	GPIO_InitStruct.Pin  = GPIO_PIN_0;
  79:../../init/config/Src/stm32h7xx_hal_msp.c **** 	GPIO_InitStruct.Mode = GPIO_MODE_ANALOG;
  80:../../init/config/Src/stm32h7xx_hal_msp.c **** 	GPIO_InitStruct.Pull = GPIO_NOPULL;
  81:../../init/config/Src/stm32h7xx_hal_msp.c **** 	HAL_GPIO_Init( GPIOC, &GPIO_InitStruct );
  82:../../init/config/Src/stm32h7xx_hal_msp.c **** 	}
  83:../../init/config/Src/stm32h7xx_hal_msp.c **** /* Load Cell ADC Setup -> ADC2 */
  84:../../init/config/Src/stm32h7xx_hal_msp.c **** else if( hadc->Instance == ADC2 )
 102              		.loc 1 84 6 is_stmt 1 view .LVU15
 103              		.loc 1 84 8 is_stmt 0 view .LVU16
 104 0018 2D4A     		ldr	r2, .L15+4
 105 001a 9342     		cmp	r3, r2
 106 001c 2CD0     		beq	.L12
 107              	.LVL1:
 108              	.L5:
  85:../../init/config/Src/stm32h7xx_hal_msp.c **** 	{
  86:../../init/config/Src/stm32h7xx_hal_msp.c **** 	/* Peripheral clock enable */
  87:../../init/config/Src/stm32h7xx_hal_msp.c **** 	HAL_RCC_ADC12_CLK_ENABLED++;
  88:../../init/config/Src/stm32h7xx_hal_msp.c **** 	if( HAL_RCC_ADC12_CLK_ENABLED ==1 )
  89:../../init/config/Src/stm32h7xx_hal_msp.c **** 		{
  90:../../init/config/Src/stm32h7xx_hal_msp.c **** 		__HAL_RCC_ADC12_CLK_ENABLE();
  91:../../init/config/Src/stm32h7xx_hal_msp.c **** 		}
  92:../../init/config/Src/stm32h7xx_hal_msp.c **** 	__HAL_RCC_GPIOC_CLK_ENABLE();
  93:../../init/config/Src/stm32h7xx_hal_msp.c **** 
  94:../../init/config/Src/stm32h7xx_hal_msp.c **** 	/**ADC2 GPIO Configuration
  95:../../init/config/Src/stm32h7xx_hal_msp.c **** 	PC1     ------> ADC2_INP11
  96:../../init/config/Src/stm32h7xx_hal_msp.c **** 	*/
  97:../../init/config/Src/stm32h7xx_hal_msp.c **** 	GPIO_InitStruct.Pin  = GPIO_PIN_1;
  98:../../init/config/Src/stm32h7xx_hal_msp.c **** 	GPIO_InitStruct.Mode = GPIO_MODE_ANALOG;
  99:../../init/config/Src/stm32h7xx_hal_msp.c **** 	GPIO_InitStruct.Pull = GPIO_NOPULL;
 100:../../init/config/Src/stm32h7xx_hal_msp.c **** 	HAL_GPIO_Init( GPIOC, &GPIO_InitStruct );
 101:../../init/config/Src/stm32h7xx_hal_msp.c **** 	}
 102:../../init/config/Src/stm32h7xx_hal_msp.c **** 
 103:../../init/config/Src/stm32h7xx_hal_msp.c **** } /* HAL_ADC_MspInit */
 109              		.loc 1 103 1 view .LVU17
 110 001e 0BB0     		add	sp, sp, #44
 111              	.LCFI4:
 112              		.cfi_remember_state
 113              		.cfi_def_cfa_offset 4
 114              		@ sp needed
 115 0020 5DF804FB 		ldr	pc, [sp], #4
 116              	.LVL2:
 117              	.L11:
 118              	.LCFI5:
 119              		.cfi_restore_state
  68:../../init/config/Src/stm32h7xx_hal_msp.c ****     if( HAL_RCC_ADC12_CLK_ENABLED ==1 )
 120              		.loc 1 68 5 is_stmt 1 view .LVU18
  68:../../init/config/Src/stm32h7xx_hal_msp.c ****     if( HAL_RCC_ADC12_CLK_ENABLED ==1 )
 121              		.loc 1 68 30 is_stmt 0 view .LVU19
 122 0024 2B4A     		ldr	r2, .L15+8
 123 0026 1368     		ldr	r3, [r2]
 124 0028 0133     		adds	r3, r3, #1
 125 002a 1360     		str	r3, [r2]
  69:../../init/config/Src/stm32h7xx_hal_msp.c **** 		{
ARM GAS  /tmp/ccSPuacA.s 			page 5


 126              		.loc 1 69 5 is_stmt 1 view .LVU20
  69:../../init/config/Src/stm32h7xx_hal_msp.c **** 		{
 127              		.loc 1 69 7 is_stmt 0 view .LVU21
 128 002c 012B     		cmp	r3, #1
 129 002e 15D0     		beq	.L13
 130              	.L7:
  71:../../init/config/Src/stm32h7xx_hal_msp.c **** 		}
 131              		.loc 1 71 3 is_stmt 1 discriminator 1 view .LVU22
  73:../../init/config/Src/stm32h7xx_hal_msp.c **** 
 132              		.loc 1 73 2 discriminator 1 view .LVU23
 133              	.LBB3:
  73:../../init/config/Src/stm32h7xx_hal_msp.c **** 
 134              		.loc 1 73 2 discriminator 1 view .LVU24
  73:../../init/config/Src/stm32h7xx_hal_msp.c **** 
 135              		.loc 1 73 2 discriminator 1 view .LVU25
 136 0030 294B     		ldr	r3, .L15+12
 137 0032 D3F8E020 		ldr	r2, [r3, #224]
 138 0036 42F00402 		orr	r2, r2, #4
 139 003a C3F8E020 		str	r2, [r3, #224]
  73:../../init/config/Src/stm32h7xx_hal_msp.c **** 
 140              		.loc 1 73 2 discriminator 1 view .LVU26
 141 003e D3F8E030 		ldr	r3, [r3, #224]
 142 0042 03F00403 		and	r3, r3, #4
 143 0046 0293     		str	r3, [sp, #8]
  73:../../init/config/Src/stm32h7xx_hal_msp.c **** 
 144              		.loc 1 73 2 discriminator 1 view .LVU27
 145 0048 029B     		ldr	r3, [sp, #8]
 146              	.LBE3:
  73:../../init/config/Src/stm32h7xx_hal_msp.c **** 
 147              		.loc 1 73 2 discriminator 1 view .LVU28
  78:../../init/config/Src/stm32h7xx_hal_msp.c **** 	GPIO_InitStruct.Mode = GPIO_MODE_ANALOG;
 148              		.loc 1 78 2 discriminator 1 view .LVU29
  78:../../init/config/Src/stm32h7xx_hal_msp.c **** 	GPIO_InitStruct.Mode = GPIO_MODE_ANALOG;
 149              		.loc 1 78 23 is_stmt 0 discriminator 1 view .LVU30
 150 004a 0123     		movs	r3, #1
 151 004c 0593     		str	r3, [sp, #20]
  79:../../init/config/Src/stm32h7xx_hal_msp.c **** 	GPIO_InitStruct.Pull = GPIO_NOPULL;
 152              		.loc 1 79 2 is_stmt 1 discriminator 1 view .LVU31
  79:../../init/config/Src/stm32h7xx_hal_msp.c **** 	GPIO_InitStruct.Pull = GPIO_NOPULL;
 153              		.loc 1 79 23 is_stmt 0 discriminator 1 view .LVU32
 154 004e 0323     		movs	r3, #3
 155 0050 0693     		str	r3, [sp, #24]
  80:../../init/config/Src/stm32h7xx_hal_msp.c **** 	HAL_GPIO_Init( GPIOC, &GPIO_InitStruct );
 156              		.loc 1 80 2 is_stmt 1 discriminator 1 view .LVU33
  81:../../init/config/Src/stm32h7xx_hal_msp.c **** 	}
 157              		.loc 1 81 2 discriminator 1 view .LVU34
 158 0052 05A9     		add	r1, sp, #20
 159 0054 2148     		ldr	r0, .L15+16
 160              	.LVL3:
  81:../../init/config/Src/stm32h7xx_hal_msp.c **** 	}
 161              		.loc 1 81 2 is_stmt 0 discriminator 1 view .LVU35
 162 0056 FFF7FEFF 		bl	HAL_GPIO_Init
 163              	.LVL4:
 164 005a E0E7     		b	.L5
 165              	.LVL5:
 166              	.L13:
  71:../../init/config/Src/stm32h7xx_hal_msp.c **** 		}
ARM GAS  /tmp/ccSPuacA.s 			page 6


 167              		.loc 1 71 3 is_stmt 1 view .LVU36
 168              	.LBB4:
  71:../../init/config/Src/stm32h7xx_hal_msp.c **** 		}
 169              		.loc 1 71 3 view .LVU37
  71:../../init/config/Src/stm32h7xx_hal_msp.c **** 		}
 170              		.loc 1 71 3 view .LVU38
 171 005c 1E4B     		ldr	r3, .L15+12
 172 005e D3F8D820 		ldr	r2, [r3, #216]
 173 0062 42F02002 		orr	r2, r2, #32
 174 0066 C3F8D820 		str	r2, [r3, #216]
  71:../../init/config/Src/stm32h7xx_hal_msp.c **** 		}
 175              		.loc 1 71 3 view .LVU39
 176 006a D3F8D830 		ldr	r3, [r3, #216]
 177 006e 03F02003 		and	r3, r3, #32
 178 0072 0193     		str	r3, [sp, #4]
  71:../../init/config/Src/stm32h7xx_hal_msp.c **** 		}
 179              		.loc 1 71 3 view .LVU40
 180 0074 019B     		ldr	r3, [sp, #4]
 181 0076 DBE7     		b	.L7
 182              	.L12:
 183              	.LBE4:
  87:../../init/config/Src/stm32h7xx_hal_msp.c **** 	if( HAL_RCC_ADC12_CLK_ENABLED ==1 )
 184              		.loc 1 87 2 view .LVU41
  87:../../init/config/Src/stm32h7xx_hal_msp.c **** 	if( HAL_RCC_ADC12_CLK_ENABLED ==1 )
 185              		.loc 1 87 27 is_stmt 0 view .LVU42
 186 0078 164A     		ldr	r2, .L15+8
 187 007a 1368     		ldr	r3, [r2]
 188 007c 0133     		adds	r3, r3, #1
 189 007e 1360     		str	r3, [r2]
  88:../../init/config/Src/stm32h7xx_hal_msp.c **** 		{
 190              		.loc 1 88 2 is_stmt 1 view .LVU43
  88:../../init/config/Src/stm32h7xx_hal_msp.c **** 		{
 191              		.loc 1 88 4 is_stmt 0 view .LVU44
 192 0080 012B     		cmp	r3, #1
 193 0082 15D0     		beq	.L14
 194              	.L9:
  90:../../init/config/Src/stm32h7xx_hal_msp.c **** 		}
 195              		.loc 1 90 3 is_stmt 1 discriminator 1 view .LVU45
  92:../../init/config/Src/stm32h7xx_hal_msp.c **** 
 196              		.loc 1 92 2 discriminator 1 view .LVU46
 197              	.LBB5:
  92:../../init/config/Src/stm32h7xx_hal_msp.c **** 
 198              		.loc 1 92 2 discriminator 1 view .LVU47
  92:../../init/config/Src/stm32h7xx_hal_msp.c **** 
 199              		.loc 1 92 2 discriminator 1 view .LVU48
 200 0084 144B     		ldr	r3, .L15+12
 201 0086 D3F8E020 		ldr	r2, [r3, #224]
 202 008a 42F00402 		orr	r2, r2, #4
 203 008e C3F8E020 		str	r2, [r3, #224]
  92:../../init/config/Src/stm32h7xx_hal_msp.c **** 
 204              		.loc 1 92 2 discriminator 1 view .LVU49
 205 0092 D3F8E030 		ldr	r3, [r3, #224]
 206 0096 03F00403 		and	r3, r3, #4
 207 009a 0493     		str	r3, [sp, #16]
  92:../../init/config/Src/stm32h7xx_hal_msp.c **** 
 208              		.loc 1 92 2 discriminator 1 view .LVU50
 209 009c 049B     		ldr	r3, [sp, #16]
ARM GAS  /tmp/ccSPuacA.s 			page 7


 210              	.LBE5:
  92:../../init/config/Src/stm32h7xx_hal_msp.c **** 
 211              		.loc 1 92 2 discriminator 1 view .LVU51
  97:../../init/config/Src/stm32h7xx_hal_msp.c **** 	GPIO_InitStruct.Mode = GPIO_MODE_ANALOG;
 212              		.loc 1 97 2 discriminator 1 view .LVU52
  97:../../init/config/Src/stm32h7xx_hal_msp.c **** 	GPIO_InitStruct.Mode = GPIO_MODE_ANALOG;
 213              		.loc 1 97 23 is_stmt 0 discriminator 1 view .LVU53
 214 009e 0223     		movs	r3, #2
 215 00a0 0593     		str	r3, [sp, #20]
  98:../../init/config/Src/stm32h7xx_hal_msp.c **** 	GPIO_InitStruct.Pull = GPIO_NOPULL;
 216              		.loc 1 98 2 is_stmt 1 discriminator 1 view .LVU54
  98:../../init/config/Src/stm32h7xx_hal_msp.c **** 	GPIO_InitStruct.Pull = GPIO_NOPULL;
 217              		.loc 1 98 23 is_stmt 0 discriminator 1 view .LVU55
 218 00a2 0323     		movs	r3, #3
 219 00a4 0693     		str	r3, [sp, #24]
  99:../../init/config/Src/stm32h7xx_hal_msp.c **** 	HAL_GPIO_Init( GPIOC, &GPIO_InitStruct );
 220              		.loc 1 99 2 is_stmt 1 discriminator 1 view .LVU56
 100:../../init/config/Src/stm32h7xx_hal_msp.c **** 	}
 221              		.loc 1 100 2 discriminator 1 view .LVU57
 222 00a6 05A9     		add	r1, sp, #20
 223 00a8 0C48     		ldr	r0, .L15+16
 224              	.LVL6:
 100:../../init/config/Src/stm32h7xx_hal_msp.c **** 	}
 225              		.loc 1 100 2 is_stmt 0 discriminator 1 view .LVU58
 226 00aa FFF7FEFF 		bl	HAL_GPIO_Init
 227              	.LVL7:
 228              		.loc 1 103 1 discriminator 1 view .LVU59
 229 00ae B6E7     		b	.L5
 230              	.LVL8:
 231              	.L14:
  90:../../init/config/Src/stm32h7xx_hal_msp.c **** 		}
 232              		.loc 1 90 3 is_stmt 1 view .LVU60
 233              	.LBB6:
  90:../../init/config/Src/stm32h7xx_hal_msp.c **** 		}
 234              		.loc 1 90 3 view .LVU61
  90:../../init/config/Src/stm32h7xx_hal_msp.c **** 		}
 235              		.loc 1 90 3 view .LVU62
 236 00b0 094B     		ldr	r3, .L15+12
 237 00b2 D3F8D820 		ldr	r2, [r3, #216]
 238 00b6 42F02002 		orr	r2, r2, #32
 239 00ba C3F8D820 		str	r2, [r3, #216]
  90:../../init/config/Src/stm32h7xx_hal_msp.c **** 		}
 240              		.loc 1 90 3 view .LVU63
 241 00be D3F8D830 		ldr	r3, [r3, #216]
 242 00c2 03F02003 		and	r3, r3, #32
 243 00c6 0393     		str	r3, [sp, #12]
  90:../../init/config/Src/stm32h7xx_hal_msp.c **** 		}
 244              		.loc 1 90 3 view .LVU64
 245 00c8 039B     		ldr	r3, [sp, #12]
 246 00ca DBE7     		b	.L9
 247              	.L16:
 248              		.align	2
 249              	.L15:
 250 00cc 00200240 		.word	1073881088
 251 00d0 00210240 		.word	1073881344
 252 00d4 00000000 		.word	HAL_RCC_ADC12_CLK_ENABLED
 253 00d8 00440258 		.word	1476543488
ARM GAS  /tmp/ccSPuacA.s 			page 8


 254 00dc 00080258 		.word	1476528128
 255              	.LBE6:
 256              		.cfi_endproc
 257              	.LFE334:
 259              		.section	.text.HAL_ADC_MspDeInit,"ax",%progbits
 260              		.align	1
 261              		.global	HAL_ADC_MspDeInit
 262              		.syntax unified
 263              		.thumb
 264              		.thumb_func
 266              	HAL_ADC_MspDeInit:
 267              	.LVL9:
 268              	.LFB335:
 104:../../init/config/Src/stm32h7xx_hal_msp.c **** 
 105:../../init/config/Src/stm32h7xx_hal_msp.c **** 
 106:../../init/config/Src/stm32h7xx_hal_msp.c **** /*******************************************************************************
 107:../../init/config/Src/stm32h7xx_hal_msp.c **** *                                                                              *
 108:../../init/config/Src/stm32h7xx_hal_msp.c **** * PROCEDURE:                                                                   *
 109:../../init/config/Src/stm32h7xx_hal_msp.c **** * 		HAL_ADC_MspDeInit                                                      *
 110:../../init/config/Src/stm32h7xx_hal_msp.c **** *                                                                              *
 111:../../init/config/Src/stm32h7xx_hal_msp.c **** * DESCRIPTION:                                                                 *
 112:../../init/config/Src/stm32h7xx_hal_msp.c **** *		ADC MSP de-initialization                                              *
 113:../../init/config/Src/stm32h7xx_hal_msp.c **** *                                                                              *
 114:../../init/config/Src/stm32h7xx_hal_msp.c **** *******************************************************************************/
 115:../../init/config/Src/stm32h7xx_hal_msp.c **** void HAL_ADC_MspDeInit
 116:../../init/config/Src/stm32h7xx_hal_msp.c **** 	(
 117:../../init/config/Src/stm32h7xx_hal_msp.c **** 	ADC_HandleTypeDef* hadc
 118:../../init/config/Src/stm32h7xx_hal_msp.c **** 	)
 119:../../init/config/Src/stm32h7xx_hal_msp.c **** {
 269              		.loc 1 119 1 view -0
 270              		.cfi_startproc
 271              		@ args = 0, pretend = 0, frame = 0
 272              		@ frame_needed = 0, uses_anonymous_args = 0
 273              		.loc 1 119 1 is_stmt 0 view .LVU66
 274 0000 08B5     		push	{r3, lr}
 275              	.LCFI6:
 276              		.cfi_def_cfa_offset 8
 277              		.cfi_offset 3, -8
 278              		.cfi_offset 14, -4
 120:../../init/config/Src/stm32h7xx_hal_msp.c **** /* Pressure Transducer ADC Disable */
 121:../../init/config/Src/stm32h7xx_hal_msp.c **** if( hadc -> Instance == ADC1 )
 279              		.loc 1 121 1 is_stmt 1 view .LVU67
 280              		.loc 1 121 10 is_stmt 0 view .LVU68
 281 0002 0368     		ldr	r3, [r0]
 282              		.loc 1 121 3 view .LVU69
 283 0004 144A     		ldr	r2, .L25
 284 0006 9342     		cmp	r3, r2
 285 0008 03D0     		beq	.L23
 122:../../init/config/Src/stm32h7xx_hal_msp.c **** 	{
 123:../../init/config/Src/stm32h7xx_hal_msp.c **** 	/* Peripheral clock disable */
 124:../../init/config/Src/stm32h7xx_hal_msp.c ****     HAL_RCC_ADC12_CLK_ENABLED--;
 125:../../init/config/Src/stm32h7xx_hal_msp.c ****     if( HAL_RCC_ADC12_CLK_ENABLED == 0)
 126:../../init/config/Src/stm32h7xx_hal_msp.c **** 		{
 127:../../init/config/Src/stm32h7xx_hal_msp.c **** 		__HAL_RCC_ADC12_CLK_DISABLE();
 128:../../init/config/Src/stm32h7xx_hal_msp.c **** 		}
 129:../../init/config/Src/stm32h7xx_hal_msp.c **** 
 130:../../init/config/Src/stm32h7xx_hal_msp.c **** 	/**ADC1 GPIO Configuration
ARM GAS  /tmp/ccSPuacA.s 			page 9


 131:../../init/config/Src/stm32h7xx_hal_msp.c **** 	PC0     ------> ADC1_INP10
 132:../../init/config/Src/stm32h7xx_hal_msp.c **** 	*/
 133:../../init/config/Src/stm32h7xx_hal_msp.c **** 	HAL_GPIO_DeInit( GPIOC, GPIO_PIN_0 );
 134:../../init/config/Src/stm32h7xx_hal_msp.c **** 	}
 135:../../init/config/Src/stm32h7xx_hal_msp.c **** /* Load Cell ADC Disable */
 136:../../init/config/Src/stm32h7xx_hal_msp.c **** else if ( hadc->Instance == ADC2 )
 286              		.loc 1 136 6 is_stmt 1 view .LVU70
 287              		.loc 1 136 9 is_stmt 0 view .LVU71
 288 000a 144A     		ldr	r2, .L25+4
 289 000c 9342     		cmp	r3, r2
 290 000e 11D0     		beq	.L24
 291              	.LVL10:
 292              	.L17:
 137:../../init/config/Src/stm32h7xx_hal_msp.c **** 	{
 138:../../init/config/Src/stm32h7xx_hal_msp.c **** 	/* Peripheral clock disable */
 139:../../init/config/Src/stm32h7xx_hal_msp.c **** 	HAL_RCC_ADC12_CLK_ENABLED--;
 140:../../init/config/Src/stm32h7xx_hal_msp.c **** 	if( HAL_RCC_ADC12_CLK_ENABLED == 0 )
 141:../../init/config/Src/stm32h7xx_hal_msp.c **** 		{
 142:../../init/config/Src/stm32h7xx_hal_msp.c **** 		__HAL_RCC_ADC12_CLK_DISABLE();
 143:../../init/config/Src/stm32h7xx_hal_msp.c **** 		}
 144:../../init/config/Src/stm32h7xx_hal_msp.c **** 
 145:../../init/config/Src/stm32h7xx_hal_msp.c **** 	/**ADC2 GPIO Configuration
 146:../../init/config/Src/stm32h7xx_hal_msp.c **** 	PC1     ------> ADC2_INP11
 147:../../init/config/Src/stm32h7xx_hal_msp.c **** 	*/
 148:../../init/config/Src/stm32h7xx_hal_msp.c **** 	HAL_GPIO_DeInit( GPIOC, GPIO_PIN_1 );
 149:../../init/config/Src/stm32h7xx_hal_msp.c **** 	}
 150:../../init/config/Src/stm32h7xx_hal_msp.c **** 
 151:../../init/config/Src/stm32h7xx_hal_msp.c **** } /* HAL_ADC_MspDeInit */
 293              		.loc 1 151 1 view .LVU72
 294 0010 08BD     		pop	{r3, pc}
 295              	.LVL11:
 296              	.L23:
 124:../../init/config/Src/stm32h7xx_hal_msp.c ****     if( HAL_RCC_ADC12_CLK_ENABLED == 0)
 297              		.loc 1 124 5 is_stmt 1 view .LVU73
 124:../../init/config/Src/stm32h7xx_hal_msp.c ****     if( HAL_RCC_ADC12_CLK_ENABLED == 0)
 298              		.loc 1 124 30 is_stmt 0 view .LVU74
 299 0012 134A     		ldr	r2, .L25+8
 300 0014 1368     		ldr	r3, [r2]
 301 0016 013B     		subs	r3, r3, #1
 302 0018 1360     		str	r3, [r2]
 125:../../init/config/Src/stm32h7xx_hal_msp.c **** 		{
 303              		.loc 1 125 5 is_stmt 1 view .LVU75
 125:../../init/config/Src/stm32h7xx_hal_msp.c **** 		{
 304              		.loc 1 125 7 is_stmt 0 view .LVU76
 305 001a 33B9     		cbnz	r3, .L19
 127:../../init/config/Src/stm32h7xx_hal_msp.c **** 		}
 306              		.loc 1 127 3 is_stmt 1 view .LVU77
 307 001c 114A     		ldr	r2, .L25+12
 308 001e D2F8D830 		ldr	r3, [r2, #216]
 309 0022 23F02003 		bic	r3, r3, #32
 310 0026 C2F8D830 		str	r3, [r2, #216]
 311              	.L19:
 133:../../init/config/Src/stm32h7xx_hal_msp.c **** 	}
 312              		.loc 1 133 2 view .LVU78
 313 002a 0121     		movs	r1, #1
 314 002c 0E48     		ldr	r0, .L25+16
 315              	.LVL12:
ARM GAS  /tmp/ccSPuacA.s 			page 10


 133:../../init/config/Src/stm32h7xx_hal_msp.c **** 	}
 316              		.loc 1 133 2 is_stmt 0 view .LVU79
 317 002e FFF7FEFF 		bl	HAL_GPIO_DeInit
 318              	.LVL13:
 319 0032 EDE7     		b	.L17
 320              	.LVL14:
 321              	.L24:
 139:../../init/config/Src/stm32h7xx_hal_msp.c **** 	if( HAL_RCC_ADC12_CLK_ENABLED == 0 )
 322              		.loc 1 139 2 is_stmt 1 view .LVU80
 139:../../init/config/Src/stm32h7xx_hal_msp.c **** 	if( HAL_RCC_ADC12_CLK_ENABLED == 0 )
 323              		.loc 1 139 27 is_stmt 0 view .LVU81
 324 0034 0A4A     		ldr	r2, .L25+8
 325 0036 1368     		ldr	r3, [r2]
 326 0038 013B     		subs	r3, r3, #1
 327 003a 1360     		str	r3, [r2]
 140:../../init/config/Src/stm32h7xx_hal_msp.c **** 		{
 328              		.loc 1 140 2 is_stmt 1 view .LVU82
 140:../../init/config/Src/stm32h7xx_hal_msp.c **** 		{
 329              		.loc 1 140 4 is_stmt 0 view .LVU83
 330 003c 33B9     		cbnz	r3, .L21
 142:../../init/config/Src/stm32h7xx_hal_msp.c **** 		}
 331              		.loc 1 142 3 is_stmt 1 view .LVU84
 332 003e 094A     		ldr	r2, .L25+12
 333 0040 D2F8D830 		ldr	r3, [r2, #216]
 334 0044 23F02003 		bic	r3, r3, #32
 335 0048 C2F8D830 		str	r3, [r2, #216]
 336              	.L21:
 148:../../init/config/Src/stm32h7xx_hal_msp.c **** 	}
 337              		.loc 1 148 2 view .LVU85
 338 004c 0221     		movs	r1, #2
 339 004e 0648     		ldr	r0, .L25+16
 340              	.LVL15:
 148:../../init/config/Src/stm32h7xx_hal_msp.c **** 	}
 341              		.loc 1 148 2 is_stmt 0 view .LVU86
 342 0050 FFF7FEFF 		bl	HAL_GPIO_DeInit
 343              	.LVL16:
 344              		.loc 1 151 1 view .LVU87
 345 0054 DCE7     		b	.L17
 346              	.L26:
 347 0056 00BF     		.align	2
 348              	.L25:
 349 0058 00200240 		.word	1073881088
 350 005c 00210240 		.word	1073881344
 351 0060 00000000 		.word	HAL_RCC_ADC12_CLK_ENABLED
 352 0064 00440258 		.word	1476543488
 353 0068 00080258 		.word	1476528128
 354              		.cfi_endproc
 355              	.LFE335:
 357              		.section	.text.HAL_I2C_MspInit,"ax",%progbits
 358              		.align	1
 359              		.global	HAL_I2C_MspInit
 360              		.syntax unified
 361              		.thumb
 362              		.thumb_func
 364              	HAL_I2C_MspInit:
 365              	.LVL17:
 366              	.LFB336:
ARM GAS  /tmp/ccSPuacA.s 			page 11


 152:../../init/config/Src/stm32h7xx_hal_msp.c **** 
 153:../../init/config/Src/stm32h7xx_hal_msp.c **** 
 154:../../init/config/Src/stm32h7xx_hal_msp.c **** /*******************************************************************************
 155:../../init/config/Src/stm32h7xx_hal_msp.c **** *                                                                              *
 156:../../init/config/Src/stm32h7xx_hal_msp.c **** * PROCEDURE:                                                                   *
 157:../../init/config/Src/stm32h7xx_hal_msp.c **** * 		HAL_I2C_MspInit                                                        *
 158:../../init/config/Src/stm32h7xx_hal_msp.c **** *                                                                              *
 159:../../init/config/Src/stm32h7xx_hal_msp.c **** * DESCRIPTION:                                                                 *
 160:../../init/config/Src/stm32h7xx_hal_msp.c **** *		I2C MSP initialization                                                 *
 161:../../init/config/Src/stm32h7xx_hal_msp.c **** *                                                                              *
 162:../../init/config/Src/stm32h7xx_hal_msp.c **** *******************************************************************************/
 163:../../init/config/Src/stm32h7xx_hal_msp.c **** void HAL_I2C_MspInit
 164:../../init/config/Src/stm32h7xx_hal_msp.c **** 	(
 165:../../init/config/Src/stm32h7xx_hal_msp.c **** 	I2C_HandleTypeDef* hi2c
 166:../../init/config/Src/stm32h7xx_hal_msp.c **** 	)
 167:../../init/config/Src/stm32h7xx_hal_msp.c **** {
 367              		.loc 1 167 1 is_stmt 1 view -0
 368              		.cfi_startproc
 369              		@ args = 0, pretend = 0, frame = 216
 370              		@ frame_needed = 0, uses_anonymous_args = 0
 371              		.loc 1 167 1 is_stmt 0 view .LVU89
 372 0000 10B5     		push	{r4, lr}
 373              	.LCFI7:
 374              		.cfi_def_cfa_offset 8
 375              		.cfi_offset 4, -8
 376              		.cfi_offset 14, -4
 377 0002 B6B0     		sub	sp, sp, #216
 378              	.LCFI8:
 379              		.cfi_def_cfa_offset 224
 380 0004 0446     		mov	r4, r0
 168:../../init/config/Src/stm32h7xx_hal_msp.c **** /* Init Structs */
 169:../../init/config/Src/stm32h7xx_hal_msp.c **** GPIO_InitTypeDef         GPIO_InitStruct     = {0};
 381              		.loc 1 169 1 is_stmt 1 view .LVU90
 382              		.loc 1 169 26 is_stmt 0 view .LVU91
 383 0006 0021     		movs	r1, #0
 384 0008 3191     		str	r1, [sp, #196]
 385 000a 3291     		str	r1, [sp, #200]
 386 000c 3391     		str	r1, [sp, #204]
 387 000e 3491     		str	r1, [sp, #208]
 388 0010 3591     		str	r1, [sp, #212]
 170:../../init/config/Src/stm32h7xx_hal_msp.c **** RCC_PeriphCLKInitTypeDef PeriphClkInitStruct = {0};
 389              		.loc 1 170 1 is_stmt 1 view .LVU92
 390              		.loc 1 170 26 is_stmt 0 view .LVU93
 391 0012 BC22     		movs	r2, #188
 392 0014 02A8     		add	r0, sp, #8
 393              	.LVL18:
 394              		.loc 1 170 26 view .LVU94
 395 0016 FFF7FEFF 		bl	memset
 396              	.LVL19:
 171:../../init/config/Src/stm32h7xx_hal_msp.c **** 
 172:../../init/config/Src/stm32h7xx_hal_msp.c **** /* Thermcouple I2C Config */
 173:../../init/config/Src/stm32h7xx_hal_msp.c **** if(hi2c->Instance==I2C1)
 397              		.loc 1 173 1 is_stmt 1 view .LVU95
 398              		.loc 1 173 8 is_stmt 0 view .LVU96
 399 001a 2268     		ldr	r2, [r4]
 400              		.loc 1 173 3 view .LVU97
 401 001c 1A4B     		ldr	r3, .L33
ARM GAS  /tmp/ccSPuacA.s 			page 12


 402 001e 9A42     		cmp	r2, r3
 403 0020 01D0     		beq	.L31
 404              	.LVL20:
 405              	.L27:
 174:../../init/config/Src/stm32h7xx_hal_msp.c **** 	{
 175:../../init/config/Src/stm32h7xx_hal_msp.c **** 	/* Initializes the peripherals clock */
 176:../../init/config/Src/stm32h7xx_hal_msp.c **** 	PeriphClkInitStruct.PeriphClockSelection = RCC_PERIPHCLK_I2C1;
 177:../../init/config/Src/stm32h7xx_hal_msp.c **** 	PeriphClkInitStruct.I2c123ClockSelection = RCC_I2C123CLKSOURCE_D2PCLK1;
 178:../../init/config/Src/stm32h7xx_hal_msp.c **** 	if ( HAL_RCCEx_PeriphCLKConfig( &PeriphClkInitStruct ) != HAL_OK )
 179:../../init/config/Src/stm32h7xx_hal_msp.c **** 		{
 180:../../init/config/Src/stm32h7xx_hal_msp.c **** 		Error_Handler();
 181:../../init/config/Src/stm32h7xx_hal_msp.c **** 		}
 182:../../init/config/Src/stm32h7xx_hal_msp.c **** 	__HAL_RCC_GPIOB_CLK_ENABLE();
 183:../../init/config/Src/stm32h7xx_hal_msp.c **** 
 184:../../init/config/Src/stm32h7xx_hal_msp.c **** 	/* I2C1 GPIO Configuration
 185:../../init/config/Src/stm32h7xx_hal_msp.c **** 	PB6     ------> I2C1_SCL
 186:../../init/config/Src/stm32h7xx_hal_msp.c **** 	PB7     ------> I2C1_SDA */
 187:../../init/config/Src/stm32h7xx_hal_msp.c **** 	GPIO_InitStruct.Pin       = GPIO_PIN_6|GPIO_PIN_7;
 188:../../init/config/Src/stm32h7xx_hal_msp.c **** 	GPIO_InitStruct.Mode      = GPIO_MODE_AF_OD;
 189:../../init/config/Src/stm32h7xx_hal_msp.c **** 	GPIO_InitStruct.Pull      = GPIO_NOPULL;
 190:../../init/config/Src/stm32h7xx_hal_msp.c **** 	GPIO_InitStruct.Speed     = GPIO_SPEED_FREQ_LOW;
 191:../../init/config/Src/stm32h7xx_hal_msp.c **** 	GPIO_InitStruct.Alternate = GPIO_AF4_I2C1;
 192:../../init/config/Src/stm32h7xx_hal_msp.c **** 	HAL_GPIO_Init( GPIOB, &GPIO_InitStruct );
 193:../../init/config/Src/stm32h7xx_hal_msp.c **** 
 194:../../init/config/Src/stm32h7xx_hal_msp.c **** 	/* Peripheral clock enable */
 195:../../init/config/Src/stm32h7xx_hal_msp.c **** 	__HAL_RCC_I2C1_CLK_ENABLE();
 196:../../init/config/Src/stm32h7xx_hal_msp.c **** 	}
 197:../../init/config/Src/stm32h7xx_hal_msp.c **** } /* HAL_I2C_Init */
 406              		.loc 1 197 1 view .LVU98
 407 0022 36B0     		add	sp, sp, #216
 408              	.LCFI9:
 409              		.cfi_remember_state
 410              		.cfi_def_cfa_offset 8
 411              		@ sp needed
 412 0024 10BD     		pop	{r4, pc}
 413              	.LVL21:
 414              	.L31:
 415              	.LCFI10:
 416              		.cfi_restore_state
 176:../../init/config/Src/stm32h7xx_hal_msp.c **** 	PeriphClkInitStruct.I2c123ClockSelection = RCC_I2C123CLKSOURCE_D2PCLK1;
 417              		.loc 1 176 2 is_stmt 1 view .LVU99
 176:../../init/config/Src/stm32h7xx_hal_msp.c **** 	PeriphClkInitStruct.I2c123ClockSelection = RCC_I2C123CLKSOURCE_D2PCLK1;
 418              		.loc 1 176 43 is_stmt 0 view .LVU100
 419 0026 0823     		movs	r3, #8
 420 0028 0293     		str	r3, [sp, #8]
 177:../../init/config/Src/stm32h7xx_hal_msp.c **** 	if ( HAL_RCCEx_PeriphCLKConfig( &PeriphClkInitStruct ) != HAL_OK )
 421              		.loc 1 177 2 is_stmt 1 view .LVU101
 178:../../init/config/Src/stm32h7xx_hal_msp.c **** 		{
 422              		.loc 1 178 2 view .LVU102
 178:../../init/config/Src/stm32h7xx_hal_msp.c **** 		{
 423              		.loc 1 178 7 is_stmt 0 view .LVU103
 424 002a 0DEB0300 		add	r0, sp, r3
 425 002e FFF7FEFF 		bl	HAL_RCCEx_PeriphCLKConfig
 426              	.LVL22:
 178:../../init/config/Src/stm32h7xx_hal_msp.c **** 		{
 427              		.loc 1 178 5 view .LVU104
 428 0032 30BB     		cbnz	r0, .L32
ARM GAS  /tmp/ccSPuacA.s 			page 13


 429              	.L29:
 182:../../init/config/Src/stm32h7xx_hal_msp.c **** 
 430              		.loc 1 182 2 is_stmt 1 view .LVU105
 431              	.LBB7:
 182:../../init/config/Src/stm32h7xx_hal_msp.c **** 
 432              		.loc 1 182 2 view .LVU106
 182:../../init/config/Src/stm32h7xx_hal_msp.c **** 
 433              		.loc 1 182 2 view .LVU107
 434 0034 154C     		ldr	r4, .L33+4
 435              	.LVL23:
 182:../../init/config/Src/stm32h7xx_hal_msp.c **** 
 436              		.loc 1 182 2 is_stmt 0 view .LVU108
 437 0036 D4F8E030 		ldr	r3, [r4, #224]
 438 003a 43F00203 		orr	r3, r3, #2
 439 003e C4F8E030 		str	r3, [r4, #224]
 182:../../init/config/Src/stm32h7xx_hal_msp.c **** 
 440              		.loc 1 182 2 is_stmt 1 view .LVU109
 441 0042 D4F8E030 		ldr	r3, [r4, #224]
 442 0046 03F00203 		and	r3, r3, #2
 443 004a 0093     		str	r3, [sp]
 182:../../init/config/Src/stm32h7xx_hal_msp.c **** 
 444              		.loc 1 182 2 view .LVU110
 445 004c 009B     		ldr	r3, [sp]
 446              	.LBE7:
 182:../../init/config/Src/stm32h7xx_hal_msp.c **** 
 447              		.loc 1 182 2 view .LVU111
 187:../../init/config/Src/stm32h7xx_hal_msp.c **** 	GPIO_InitStruct.Mode      = GPIO_MODE_AF_OD;
 448              		.loc 1 187 2 view .LVU112
 187:../../init/config/Src/stm32h7xx_hal_msp.c **** 	GPIO_InitStruct.Mode      = GPIO_MODE_AF_OD;
 449              		.loc 1 187 28 is_stmt 0 view .LVU113
 450 004e C023     		movs	r3, #192
 451 0050 3193     		str	r3, [sp, #196]
 188:../../init/config/Src/stm32h7xx_hal_msp.c **** 	GPIO_InitStruct.Pull      = GPIO_NOPULL;
 452              		.loc 1 188 2 is_stmt 1 view .LVU114
 188:../../init/config/Src/stm32h7xx_hal_msp.c **** 	GPIO_InitStruct.Pull      = GPIO_NOPULL;
 453              		.loc 1 188 28 is_stmt 0 view .LVU115
 454 0052 1223     		movs	r3, #18
 455 0054 3293     		str	r3, [sp, #200]
 189:../../init/config/Src/stm32h7xx_hal_msp.c **** 	GPIO_InitStruct.Speed     = GPIO_SPEED_FREQ_LOW;
 456              		.loc 1 189 2 is_stmt 1 view .LVU116
 189:../../init/config/Src/stm32h7xx_hal_msp.c **** 	GPIO_InitStruct.Speed     = GPIO_SPEED_FREQ_LOW;
 457              		.loc 1 189 28 is_stmt 0 view .LVU117
 458 0056 0023     		movs	r3, #0
 459 0058 3393     		str	r3, [sp, #204]
 190:../../init/config/Src/stm32h7xx_hal_msp.c **** 	GPIO_InitStruct.Alternate = GPIO_AF4_I2C1;
 460              		.loc 1 190 2 is_stmt 1 view .LVU118
 190:../../init/config/Src/stm32h7xx_hal_msp.c **** 	GPIO_InitStruct.Alternate = GPIO_AF4_I2C1;
 461              		.loc 1 190 28 is_stmt 0 view .LVU119
 462 005a 3493     		str	r3, [sp, #208]
 191:../../init/config/Src/stm32h7xx_hal_msp.c **** 	HAL_GPIO_Init( GPIOB, &GPIO_InitStruct );
 463              		.loc 1 191 2 is_stmt 1 view .LVU120
 191:../../init/config/Src/stm32h7xx_hal_msp.c **** 	HAL_GPIO_Init( GPIOB, &GPIO_InitStruct );
 464              		.loc 1 191 28 is_stmt 0 view .LVU121
 465 005c 0423     		movs	r3, #4
 466 005e 3593     		str	r3, [sp, #212]
 192:../../init/config/Src/stm32h7xx_hal_msp.c **** 
 467              		.loc 1 192 2 is_stmt 1 view .LVU122
ARM GAS  /tmp/ccSPuacA.s 			page 14


 468 0060 31A9     		add	r1, sp, #196
 469 0062 0B48     		ldr	r0, .L33+8
 470 0064 FFF7FEFF 		bl	HAL_GPIO_Init
 471              	.LVL24:
 195:../../init/config/Src/stm32h7xx_hal_msp.c **** 	}
 472              		.loc 1 195 2 view .LVU123
 473              	.LBB8:
 195:../../init/config/Src/stm32h7xx_hal_msp.c **** 	}
 474              		.loc 1 195 2 view .LVU124
 195:../../init/config/Src/stm32h7xx_hal_msp.c **** 	}
 475              		.loc 1 195 2 view .LVU125
 476 0068 D4F8E830 		ldr	r3, [r4, #232]
 477 006c 43F40013 		orr	r3, r3, #2097152
 478 0070 C4F8E830 		str	r3, [r4, #232]
 195:../../init/config/Src/stm32h7xx_hal_msp.c **** 	}
 479              		.loc 1 195 2 view .LVU126
 480 0074 D4F8E830 		ldr	r3, [r4, #232]
 481 0078 03F40013 		and	r3, r3, #2097152
 482 007c 0193     		str	r3, [sp, #4]
 195:../../init/config/Src/stm32h7xx_hal_msp.c **** 	}
 483              		.loc 1 195 2 view .LVU127
 484 007e 019B     		ldr	r3, [sp, #4]
 485              	.LBE8:
 195:../../init/config/Src/stm32h7xx_hal_msp.c **** 	}
 486              		.loc 1 195 2 view .LVU128
 487              		.loc 1 197 1 is_stmt 0 view .LVU129
 488 0080 CFE7     		b	.L27
 489              	.LVL25:
 490              	.L32:
 491              	.LBB9:
 180:../../init/config/Src/stm32h7xx_hal_msp.c **** 		}
 492              		.loc 1 180 3 is_stmt 1 view .LVU130
 493 0082 FFF7FEFF 		bl	Error_Handler
 494              	.LVL26:
 495 0086 D5E7     		b	.L29
 496              	.L34:
 497              		.align	2
 498              	.L33:
 499 0088 00540040 		.word	1073763328
 500 008c 00440258 		.word	1476543488
 501 0090 00040258 		.word	1476527104
 502              	.LBE9:
 503              		.cfi_endproc
 504              	.LFE336:
 506              		.section	.text.HAL_I2C_MspDeInit,"ax",%progbits
 507              		.align	1
 508              		.global	HAL_I2C_MspDeInit
 509              		.syntax unified
 510              		.thumb
 511              		.thumb_func
 513              	HAL_I2C_MspDeInit:
 514              	.LVL27:
 515              	.LFB337:
 198:../../init/config/Src/stm32h7xx_hal_msp.c **** 
 199:../../init/config/Src/stm32h7xx_hal_msp.c **** 
 200:../../init/config/Src/stm32h7xx_hal_msp.c **** /*******************************************************************************
 201:../../init/config/Src/stm32h7xx_hal_msp.c **** *                                                                              *
ARM GAS  /tmp/ccSPuacA.s 			page 15


 202:../../init/config/Src/stm32h7xx_hal_msp.c **** * PROCEDURE:                                                                   *
 203:../../init/config/Src/stm32h7xx_hal_msp.c **** * 		HAL_I2C_MspDeInit                                                      *
 204:../../init/config/Src/stm32h7xx_hal_msp.c **** *                                                                              *
 205:../../init/config/Src/stm32h7xx_hal_msp.c **** * DESCRIPTION:                                                                 *
 206:../../init/config/Src/stm32h7xx_hal_msp.c **** *		I2C MSP De-initialization                                              *
 207:../../init/config/Src/stm32h7xx_hal_msp.c **** *                                                                              *
 208:../../init/config/Src/stm32h7xx_hal_msp.c **** *******************************************************************************/
 209:../../init/config/Src/stm32h7xx_hal_msp.c **** void HAL_I2C_MspDeInit
 210:../../init/config/Src/stm32h7xx_hal_msp.c **** 	(
 211:../../init/config/Src/stm32h7xx_hal_msp.c **** 	I2C_HandleTypeDef* hi2c
 212:../../init/config/Src/stm32h7xx_hal_msp.c **** 	)
 213:../../init/config/Src/stm32h7xx_hal_msp.c **** {
 516              		.loc 1 213 1 view -0
 517              		.cfi_startproc
 518              		@ args = 0, pretend = 0, frame = 0
 519              		@ frame_needed = 0, uses_anonymous_args = 0
 214:../../init/config/Src/stm32h7xx_hal_msp.c **** /* Thermocouple I2C */
 215:../../init/config/Src/stm32h7xx_hal_msp.c **** if( hi2c->Instance == I2C1 )
 520              		.loc 1 215 1 view .LVU132
 521              		.loc 1 215 9 is_stmt 0 view .LVU133
 522 0000 0268     		ldr	r2, [r0]
 523              		.loc 1 215 3 view .LVU134
 524 0002 0B4B     		ldr	r3, .L42
 525 0004 9A42     		cmp	r2, r3
 526 0006 00D0     		beq	.L41
 527 0008 7047     		bx	lr
 528              	.L41:
 213:../../init/config/Src/stm32h7xx_hal_msp.c **** /* Thermocouple I2C */
 529              		.loc 1 213 1 view .LVU135
 530 000a 10B5     		push	{r4, lr}
 531              	.LCFI11:
 532              		.cfi_def_cfa_offset 8
 533              		.cfi_offset 4, -8
 534              		.cfi_offset 14, -4
 216:../../init/config/Src/stm32h7xx_hal_msp.c **** 	{
 217:../../init/config/Src/stm32h7xx_hal_msp.c **** 	/* Peripheral clock disable */
 218:../../init/config/Src/stm32h7xx_hal_msp.c **** 	__HAL_RCC_I2C1_CLK_DISABLE();
 535              		.loc 1 218 2 is_stmt 1 view .LVU136
 536 000c 094A     		ldr	r2, .L42+4
 537 000e D2F8E830 		ldr	r3, [r2, #232]
 538 0012 23F40013 		bic	r3, r3, #2097152
 539 0016 C2F8E830 		str	r3, [r2, #232]
 219:../../init/config/Src/stm32h7xx_hal_msp.c **** 
 220:../../init/config/Src/stm32h7xx_hal_msp.c **** 	/* I2C1 GPIO Configuration
 221:../../init/config/Src/stm32h7xx_hal_msp.c **** 	PB6     ------> I2C1_SCL
 222:../../init/config/Src/stm32h7xx_hal_msp.c **** 	PB7     ------> I2C1_SDA */
 223:../../init/config/Src/stm32h7xx_hal_msp.c **** 	HAL_GPIO_DeInit( GPIOB, GPIO_PIN_6 );
 540              		.loc 1 223 2 view .LVU137
 541 001a 074C     		ldr	r4, .L42+8
 542 001c 4021     		movs	r1, #64
 543 001e 2046     		mov	r0, r4
 544              	.LVL28:
 545              		.loc 1 223 2 is_stmt 0 view .LVU138
 546 0020 FFF7FEFF 		bl	HAL_GPIO_DeInit
 547              	.LVL29:
 224:../../init/config/Src/stm32h7xx_hal_msp.c **** 	HAL_GPIO_DeInit( GPIOB, GPIO_PIN_7 );
 548              		.loc 1 224 2 is_stmt 1 view .LVU139
ARM GAS  /tmp/ccSPuacA.s 			page 16


 549 0024 8021     		movs	r1, #128
 550 0026 2046     		mov	r0, r4
 551 0028 FFF7FEFF 		bl	HAL_GPIO_DeInit
 552              	.LVL30:
 225:../../init/config/Src/stm32h7xx_hal_msp.c **** 	}
 226:../../init/config/Src/stm32h7xx_hal_msp.c **** 
 227:../../init/config/Src/stm32h7xx_hal_msp.c **** }  /* HAL_I2C_MspDeInit */
 553              		.loc 1 227 1 is_stmt 0 view .LVU140
 554 002c 10BD     		pop	{r4, pc}
 555              	.L43:
 556 002e 00BF     		.align	2
 557              	.L42:
 558 0030 00540040 		.word	1073763328
 559 0034 00440258 		.word	1476543488
 560 0038 00040258 		.word	1476527104
 561              		.cfi_endproc
 562              	.LFE337:
 564              		.section	.text.HAL_SPI_MspInit,"ax",%progbits
 565              		.align	1
 566              		.global	HAL_SPI_MspInit
 567              		.syntax unified
 568              		.thumb
 569              		.thumb_func
 571              	HAL_SPI_MspInit:
 572              	.LVL31:
 573              	.LFB338:
 228:../../init/config/Src/stm32h7xx_hal_msp.c **** 
 229:../../init/config/Src/stm32h7xx_hal_msp.c **** 
 230:../../init/config/Src/stm32h7xx_hal_msp.c **** /*******************************************************************************
 231:../../init/config/Src/stm32h7xx_hal_msp.c **** *                                                                              *
 232:../../init/config/Src/stm32h7xx_hal_msp.c **** * PROCEDURE:                                                                   *
 233:../../init/config/Src/stm32h7xx_hal_msp.c **** * 		HAL_SPI_MspInit                                                        *
 234:../../init/config/Src/stm32h7xx_hal_msp.c **** *                                                                              *
 235:../../init/config/Src/stm32h7xx_hal_msp.c **** * DESCRIPTION:                                                                 *
 236:../../init/config/Src/stm32h7xx_hal_msp.c **** *		SPI MSP initialization                                                 *
 237:../../init/config/Src/stm32h7xx_hal_msp.c **** *                                                                              *
 238:../../init/config/Src/stm32h7xx_hal_msp.c **** *******************************************************************************/
 239:../../init/config/Src/stm32h7xx_hal_msp.c **** void HAL_SPI_MspInit
 240:../../init/config/Src/stm32h7xx_hal_msp.c **** 	(
 241:../../init/config/Src/stm32h7xx_hal_msp.c ****     SPI_HandleTypeDef* hspi
 242:../../init/config/Src/stm32h7xx_hal_msp.c ****     )
 243:../../init/config/Src/stm32h7xx_hal_msp.c **** {
 574              		.loc 1 243 1 is_stmt 1 view -0
 575              		.cfi_startproc
 576              		@ args = 0, pretend = 0, frame = 216
 577              		@ frame_needed = 0, uses_anonymous_args = 0
 578              		.loc 1 243 1 is_stmt 0 view .LVU142
 579 0000 10B5     		push	{r4, lr}
 580              	.LCFI12:
 581              		.cfi_def_cfa_offset 8
 582              		.cfi_offset 4, -8
 583              		.cfi_offset 14, -4
 584 0002 B6B0     		sub	sp, sp, #216
 585              	.LCFI13:
 586              		.cfi_def_cfa_offset 224
 587 0004 0446     		mov	r4, r0
 244:../../init/config/Src/stm32h7xx_hal_msp.c **** /* Initialization Structs */
ARM GAS  /tmp/ccSPuacA.s 			page 17


 245:../../init/config/Src/stm32h7xx_hal_msp.c **** GPIO_InitTypeDef         GPIO_InitStruct     = {0};
 588              		.loc 1 245 1 is_stmt 1 view .LVU143
 589              		.loc 1 245 26 is_stmt 0 view .LVU144
 590 0006 0021     		movs	r1, #0
 591 0008 3191     		str	r1, [sp, #196]
 592 000a 3291     		str	r1, [sp, #200]
 593 000c 3391     		str	r1, [sp, #204]
 594 000e 3491     		str	r1, [sp, #208]
 595 0010 3591     		str	r1, [sp, #212]
 246:../../init/config/Src/stm32h7xx_hal_msp.c **** RCC_PeriphCLKInitTypeDef PeriphClkInitStruct = {0};
 596              		.loc 1 246 1 is_stmt 1 view .LVU145
 597              		.loc 1 246 26 is_stmt 0 view .LVU146
 598 0012 BC22     		movs	r2, #188
 599 0014 02A8     		add	r0, sp, #8
 600              	.LVL32:
 601              		.loc 1 246 26 view .LVU147
 602 0016 FFF7FEFF 		bl	memset
 603              	.LVL33:
 247:../../init/config/Src/stm32h7xx_hal_msp.c **** 
 248:../../init/config/Src/stm32h7xx_hal_msp.c **** /* Flash SPI Setup */
 249:../../init/config/Src/stm32h7xx_hal_msp.c **** if( hspi->Instance == SPI2 )
 604              		.loc 1 249 1 is_stmt 1 view .LVU148
 605              		.loc 1 249 9 is_stmt 0 view .LVU149
 606 001a 2268     		ldr	r2, [r4]
 607              		.loc 1 249 3 view .LVU150
 608 001c 224B     		ldr	r3, .L50
 609 001e 9A42     		cmp	r2, r3
 610 0020 01D0     		beq	.L48
 611              	.L44:
 250:../../init/config/Src/stm32h7xx_hal_msp.c **** 	{
 251:../../init/config/Src/stm32h7xx_hal_msp.c **** 	/* Clock Setup */
 252:../../init/config/Src/stm32h7xx_hal_msp.c **** 	PeriphClkInitStruct.PeriphClockSelection = RCC_PERIPHCLK_SPI2;
 253:../../init/config/Src/stm32h7xx_hal_msp.c ****     PeriphClkInitStruct.PLL3.PLL3M           = 2;
 254:../../init/config/Src/stm32h7xx_hal_msp.c ****     PeriphClkInitStruct.PLL3.PLL3N           = 16;
 255:../../init/config/Src/stm32h7xx_hal_msp.c ****     PeriphClkInitStruct.PLL3.PLL3P           = 4;
 256:../../init/config/Src/stm32h7xx_hal_msp.c ****     PeriphClkInitStruct.PLL3.PLL3Q           = 2;
 257:../../init/config/Src/stm32h7xx_hal_msp.c ****     PeriphClkInitStruct.PLL3.PLL3R           = 2;
 258:../../init/config/Src/stm32h7xx_hal_msp.c ****     PeriphClkInitStruct.PLL3.PLL3RGE         = RCC_PLL3VCIRANGE_3;
 259:../../init/config/Src/stm32h7xx_hal_msp.c ****     PeriphClkInitStruct.PLL3.PLL3VCOSEL      = RCC_PLL3VCOWIDE;
 260:../../init/config/Src/stm32h7xx_hal_msp.c ****     PeriphClkInitStruct.PLL3.PLL3FRACN       = 0;
 261:../../init/config/Src/stm32h7xx_hal_msp.c ****     PeriphClkInitStruct.Spi123ClockSelection = RCC_SPI123CLKSOURCE_PLL3;
 262:../../init/config/Src/stm32h7xx_hal_msp.c ****     if ( HAL_RCCEx_PeriphCLKConfig( &PeriphClkInitStruct ) != HAL_OK )
 263:../../init/config/Src/stm32h7xx_hal_msp.c **** 		{
 264:../../init/config/Src/stm32h7xx_hal_msp.c **** 		Error_Handler();
 265:../../init/config/Src/stm32h7xx_hal_msp.c **** 		}
 266:../../init/config/Src/stm32h7xx_hal_msp.c **** 
 267:../../init/config/Src/stm32h7xx_hal_msp.c **** 	/* Peripheral clock enable */
 268:../../init/config/Src/stm32h7xx_hal_msp.c **** 	__HAL_RCC_SPI2_CLK_ENABLE();
 269:../../init/config/Src/stm32h7xx_hal_msp.c **** 	__HAL_RCC_GPIOB_CLK_ENABLE();
 270:../../init/config/Src/stm32h7xx_hal_msp.c **** 
 271:../../init/config/Src/stm32h7xx_hal_msp.c **** 	/* SPI2 GPIO Configuration
 272:../../init/config/Src/stm32h7xx_hal_msp.c **** 	PB10     ------> SPI2_SCK
 273:../../init/config/Src/stm32h7xx_hal_msp.c **** 	PB14     ------> SPI2_MISO
 274:../../init/config/Src/stm32h7xx_hal_msp.c **** 	PB15     ------> SPI2_MOSI */
 275:../../init/config/Src/stm32h7xx_hal_msp.c **** 	GPIO_InitStruct.Pin       = GPIO_PIN_10|GPIO_PIN_14|GPIO_PIN_15;
 276:../../init/config/Src/stm32h7xx_hal_msp.c **** 	GPIO_InitStruct.Mode      = GPIO_MODE_AF_PP;
 277:../../init/config/Src/stm32h7xx_hal_msp.c **** 	GPIO_InitStruct.Pull      = GPIO_NOPULL;
ARM GAS  /tmp/ccSPuacA.s 			page 18


 278:../../init/config/Src/stm32h7xx_hal_msp.c **** 	GPIO_InitStruct.Speed     = GPIO_SPEED_FREQ_LOW;
 279:../../init/config/Src/stm32h7xx_hal_msp.c **** 	GPIO_InitStruct.Alternate = GPIO_AF5_SPI2;
 280:../../init/config/Src/stm32h7xx_hal_msp.c **** 	HAL_GPIO_Init( GPIOB, &GPIO_InitStruct );
 281:../../init/config/Src/stm32h7xx_hal_msp.c **** 
 282:../../init/config/Src/stm32h7xx_hal_msp.c **** 	}
 283:../../init/config/Src/stm32h7xx_hal_msp.c **** 
 284:../../init/config/Src/stm32h7xx_hal_msp.c **** } /* HAL_SPI_MspInit */
 612              		.loc 1 284 1 view .LVU151
 613 0022 36B0     		add	sp, sp, #216
 614              	.LCFI14:
 615              		.cfi_remember_state
 616              		.cfi_def_cfa_offset 8
 617              		@ sp needed
 618 0024 10BD     		pop	{r4, pc}
 619              	.LVL34:
 620              	.L48:
 621              	.LCFI15:
 622              		.cfi_restore_state
 252:../../init/config/Src/stm32h7xx_hal_msp.c ****     PeriphClkInitStruct.PLL3.PLL3M           = 2;
 623              		.loc 1 252 2 is_stmt 1 view .LVU152
 252:../../init/config/Src/stm32h7xx_hal_msp.c ****     PeriphClkInitStruct.PLL3.PLL3M           = 2;
 624              		.loc 1 252 43 is_stmt 0 view .LVU153
 625 0026 4FF48053 		mov	r3, #4096
 626 002a 0293     		str	r3, [sp, #8]
 253:../../init/config/Src/stm32h7xx_hal_msp.c ****     PeriphClkInitStruct.PLL3.PLL3N           = 16;
 627              		.loc 1 253 5 is_stmt 1 view .LVU154
 253:../../init/config/Src/stm32h7xx_hal_msp.c ****     PeriphClkInitStruct.PLL3.PLL3N           = 16;
 628              		.loc 1 253 46 is_stmt 0 view .LVU155
 629 002c 0223     		movs	r3, #2
 630 002e 0B93     		str	r3, [sp, #44]
 254:../../init/config/Src/stm32h7xx_hal_msp.c ****     PeriphClkInitStruct.PLL3.PLL3P           = 4;
 631              		.loc 1 254 5 is_stmt 1 view .LVU156
 254:../../init/config/Src/stm32h7xx_hal_msp.c ****     PeriphClkInitStruct.PLL3.PLL3P           = 4;
 632              		.loc 1 254 46 is_stmt 0 view .LVU157
 633 0030 1022     		movs	r2, #16
 634 0032 0C92     		str	r2, [sp, #48]
 255:../../init/config/Src/stm32h7xx_hal_msp.c ****     PeriphClkInitStruct.PLL3.PLL3Q           = 2;
 635              		.loc 1 255 5 is_stmt 1 view .LVU158
 255:../../init/config/Src/stm32h7xx_hal_msp.c ****     PeriphClkInitStruct.PLL3.PLL3Q           = 2;
 636              		.loc 1 255 46 is_stmt 0 view .LVU159
 637 0034 0422     		movs	r2, #4
 638 0036 0D92     		str	r2, [sp, #52]
 256:../../init/config/Src/stm32h7xx_hal_msp.c ****     PeriphClkInitStruct.PLL3.PLL3R           = 2;
 639              		.loc 1 256 5 is_stmt 1 view .LVU160
 256:../../init/config/Src/stm32h7xx_hal_msp.c ****     PeriphClkInitStruct.PLL3.PLL3R           = 2;
 640              		.loc 1 256 46 is_stmt 0 view .LVU161
 641 0038 0E93     		str	r3, [sp, #56]
 257:../../init/config/Src/stm32h7xx_hal_msp.c ****     PeriphClkInitStruct.PLL3.PLL3RGE         = RCC_PLL3VCIRANGE_3;
 642              		.loc 1 257 5 is_stmt 1 view .LVU162
 257:../../init/config/Src/stm32h7xx_hal_msp.c ****     PeriphClkInitStruct.PLL3.PLL3RGE         = RCC_PLL3VCIRANGE_3;
 643              		.loc 1 257 46 is_stmt 0 view .LVU163
 644 003a 0F93     		str	r3, [sp, #60]
 258:../../init/config/Src/stm32h7xx_hal_msp.c ****     PeriphClkInitStruct.PLL3.PLL3VCOSEL      = RCC_PLL3VCOWIDE;
 645              		.loc 1 258 5 is_stmt 1 view .LVU164
 258:../../init/config/Src/stm32h7xx_hal_msp.c ****     PeriphClkInitStruct.PLL3.PLL3VCOSEL      = RCC_PLL3VCOWIDE;
 646              		.loc 1 258 46 is_stmt 0 view .LVU165
 647 003c 4FF44063 		mov	r3, #3072
ARM GAS  /tmp/ccSPuacA.s 			page 19


 648 0040 1093     		str	r3, [sp, #64]
 259:../../init/config/Src/stm32h7xx_hal_msp.c ****     PeriphClkInitStruct.PLL3.PLL3FRACN       = 0;
 649              		.loc 1 259 5 is_stmt 1 view .LVU166
 260:../../init/config/Src/stm32h7xx_hal_msp.c ****     PeriphClkInitStruct.Spi123ClockSelection = RCC_SPI123CLKSOURCE_PLL3;
 650              		.loc 1 260 5 view .LVU167
 261:../../init/config/Src/stm32h7xx_hal_msp.c ****     if ( HAL_RCCEx_PeriphCLKConfig( &PeriphClkInitStruct ) != HAL_OK )
 651              		.loc 1 261 5 view .LVU168
 261:../../init/config/Src/stm32h7xx_hal_msp.c ****     if ( HAL_RCCEx_PeriphCLKConfig( &PeriphClkInitStruct ) != HAL_OK )
 652              		.loc 1 261 46 is_stmt 0 view .LVU169
 653 0042 4FF40053 		mov	r3, #8192
 654 0046 1993     		str	r3, [sp, #100]
 262:../../init/config/Src/stm32h7xx_hal_msp.c **** 		{
 655              		.loc 1 262 5 is_stmt 1 view .LVU170
 262:../../init/config/Src/stm32h7xx_hal_msp.c **** 		{
 656              		.loc 1 262 10 is_stmt 0 view .LVU171
 657 0048 02A8     		add	r0, sp, #8
 658 004a FFF7FEFF 		bl	HAL_RCCEx_PeriphCLKConfig
 659              	.LVL35:
 262:../../init/config/Src/stm32h7xx_hal_msp.c **** 		{
 660              		.loc 1 262 8 view .LVU172
 661 004e 38BB     		cbnz	r0, .L49
 662              	.L46:
 268:../../init/config/Src/stm32h7xx_hal_msp.c **** 	__HAL_RCC_GPIOB_CLK_ENABLE();
 663              		.loc 1 268 2 is_stmt 1 view .LVU173
 664              	.LBB10:
 268:../../init/config/Src/stm32h7xx_hal_msp.c **** 	__HAL_RCC_GPIOB_CLK_ENABLE();
 665              		.loc 1 268 2 view .LVU174
 268:../../init/config/Src/stm32h7xx_hal_msp.c **** 	__HAL_RCC_GPIOB_CLK_ENABLE();
 666              		.loc 1 268 2 view .LVU175
 667 0050 164B     		ldr	r3, .L50+4
 668 0052 D3F8E820 		ldr	r2, [r3, #232]
 669 0056 42F48042 		orr	r2, r2, #16384
 670 005a C3F8E820 		str	r2, [r3, #232]
 268:../../init/config/Src/stm32h7xx_hal_msp.c **** 	__HAL_RCC_GPIOB_CLK_ENABLE();
 671              		.loc 1 268 2 view .LVU176
 672 005e D3F8E820 		ldr	r2, [r3, #232]
 673 0062 02F48042 		and	r2, r2, #16384
 674 0066 0092     		str	r2, [sp]
 268:../../init/config/Src/stm32h7xx_hal_msp.c **** 	__HAL_RCC_GPIOB_CLK_ENABLE();
 675              		.loc 1 268 2 view .LVU177
 676 0068 009A     		ldr	r2, [sp]
 677              	.LBE10:
 268:../../init/config/Src/stm32h7xx_hal_msp.c **** 	__HAL_RCC_GPIOB_CLK_ENABLE();
 678              		.loc 1 268 2 view .LVU178
 269:../../init/config/Src/stm32h7xx_hal_msp.c **** 
 679              		.loc 1 269 2 view .LVU179
 680              	.LBB11:
 269:../../init/config/Src/stm32h7xx_hal_msp.c **** 
 681              		.loc 1 269 2 view .LVU180
 269:../../init/config/Src/stm32h7xx_hal_msp.c **** 
 682              		.loc 1 269 2 view .LVU181
 683 006a D3F8E020 		ldr	r2, [r3, #224]
 684 006e 42F00202 		orr	r2, r2, #2
 685 0072 C3F8E020 		str	r2, [r3, #224]
 269:../../init/config/Src/stm32h7xx_hal_msp.c **** 
 686              		.loc 1 269 2 view .LVU182
 687 0076 D3F8E030 		ldr	r3, [r3, #224]
ARM GAS  /tmp/ccSPuacA.s 			page 20


 688 007a 03F00203 		and	r3, r3, #2
 689 007e 0193     		str	r3, [sp, #4]
 269:../../init/config/Src/stm32h7xx_hal_msp.c **** 
 690              		.loc 1 269 2 view .LVU183
 691 0080 019B     		ldr	r3, [sp, #4]
 692              	.LBE11:
 269:../../init/config/Src/stm32h7xx_hal_msp.c **** 
 693              		.loc 1 269 2 view .LVU184
 275:../../init/config/Src/stm32h7xx_hal_msp.c **** 	GPIO_InitStruct.Mode      = GPIO_MODE_AF_PP;
 694              		.loc 1 275 2 view .LVU185
 275:../../init/config/Src/stm32h7xx_hal_msp.c **** 	GPIO_InitStruct.Mode      = GPIO_MODE_AF_PP;
 695              		.loc 1 275 28 is_stmt 0 view .LVU186
 696 0082 4FF44443 		mov	r3, #50176
 697 0086 3193     		str	r3, [sp, #196]
 276:../../init/config/Src/stm32h7xx_hal_msp.c **** 	GPIO_InitStruct.Pull      = GPIO_NOPULL;
 698              		.loc 1 276 2 is_stmt 1 view .LVU187
 276:../../init/config/Src/stm32h7xx_hal_msp.c **** 	GPIO_InitStruct.Pull      = GPIO_NOPULL;
 699              		.loc 1 276 28 is_stmt 0 view .LVU188
 700 0088 0223     		movs	r3, #2
 701 008a 3293     		str	r3, [sp, #200]
 277:../../init/config/Src/stm32h7xx_hal_msp.c **** 	GPIO_InitStruct.Speed     = GPIO_SPEED_FREQ_LOW;
 702              		.loc 1 277 2 is_stmt 1 view .LVU189
 277:../../init/config/Src/stm32h7xx_hal_msp.c **** 	GPIO_InitStruct.Speed     = GPIO_SPEED_FREQ_LOW;
 703              		.loc 1 277 28 is_stmt 0 view .LVU190
 704 008c 0023     		movs	r3, #0
 705 008e 3393     		str	r3, [sp, #204]
 278:../../init/config/Src/stm32h7xx_hal_msp.c **** 	GPIO_InitStruct.Alternate = GPIO_AF5_SPI2;
 706              		.loc 1 278 2 is_stmt 1 view .LVU191
 278:../../init/config/Src/stm32h7xx_hal_msp.c **** 	GPIO_InitStruct.Alternate = GPIO_AF5_SPI2;
 707              		.loc 1 278 28 is_stmt 0 view .LVU192
 708 0090 3493     		str	r3, [sp, #208]
 279:../../init/config/Src/stm32h7xx_hal_msp.c **** 	HAL_GPIO_Init( GPIOB, &GPIO_InitStruct );
 709              		.loc 1 279 2 is_stmt 1 view .LVU193
 279:../../init/config/Src/stm32h7xx_hal_msp.c **** 	HAL_GPIO_Init( GPIOB, &GPIO_InitStruct );
 710              		.loc 1 279 28 is_stmt 0 view .LVU194
 711 0092 0523     		movs	r3, #5
 712 0094 3593     		str	r3, [sp, #212]
 280:../../init/config/Src/stm32h7xx_hal_msp.c **** 
 713              		.loc 1 280 2 is_stmt 1 view .LVU195
 714 0096 31A9     		add	r1, sp, #196
 715 0098 0548     		ldr	r0, .L50+8
 716 009a FFF7FEFF 		bl	HAL_GPIO_Init
 717              	.LVL36:
 718              		.loc 1 284 1 is_stmt 0 view .LVU196
 719 009e C0E7     		b	.L44
 720              	.L49:
 721              	.LBB12:
 264:../../init/config/Src/stm32h7xx_hal_msp.c **** 		}
 722              		.loc 1 264 3 is_stmt 1 view .LVU197
 723 00a0 FFF7FEFF 		bl	Error_Handler
 724              	.LVL37:
 725 00a4 D4E7     		b	.L46
 726              	.L51:
 727 00a6 00BF     		.align	2
 728              	.L50:
 729 00a8 00380040 		.word	1073756160
 730 00ac 00440258 		.word	1476543488
ARM GAS  /tmp/ccSPuacA.s 			page 21


 731 00b0 00040258 		.word	1476527104
 732              	.LBE12:
 733              		.cfi_endproc
 734              	.LFE338:
 736              		.section	.text.HAL_SPI_MspDeInit,"ax",%progbits
 737              		.align	1
 738              		.global	HAL_SPI_MspDeInit
 739              		.syntax unified
 740              		.thumb
 741              		.thumb_func
 743              	HAL_SPI_MspDeInit:
 744              	.LVL38:
 745              	.LFB339:
 285:../../init/config/Src/stm32h7xx_hal_msp.c **** 
 286:../../init/config/Src/stm32h7xx_hal_msp.c **** 
 287:../../init/config/Src/stm32h7xx_hal_msp.c **** /*******************************************************************************
 288:../../init/config/Src/stm32h7xx_hal_msp.c **** *                                                                              *
 289:../../init/config/Src/stm32h7xx_hal_msp.c **** * PROCEDURE:                                                                   *
 290:../../init/config/Src/stm32h7xx_hal_msp.c **** * 		HAL_SPI_MspDeInit                                                      *
 291:../../init/config/Src/stm32h7xx_hal_msp.c **** *                                                                              *
 292:../../init/config/Src/stm32h7xx_hal_msp.c **** * DESCRIPTION:                                                                 *
 293:../../init/config/Src/stm32h7xx_hal_msp.c **** *		SPI MSP de-initialization                                              *
 294:../../init/config/Src/stm32h7xx_hal_msp.c **** *                                                                              *
 295:../../init/config/Src/stm32h7xx_hal_msp.c **** *******************************************************************************/
 296:../../init/config/Src/stm32h7xx_hal_msp.c **** void HAL_SPI_MspDeInit
 297:../../init/config/Src/stm32h7xx_hal_msp.c **** 	(
 298:../../init/config/Src/stm32h7xx_hal_msp.c **** 	SPI_HandleTypeDef* hspi
 299:../../init/config/Src/stm32h7xx_hal_msp.c **** 	)
 300:../../init/config/Src/stm32h7xx_hal_msp.c **** {
 746              		.loc 1 300 1 view -0
 747              		.cfi_startproc
 748              		@ args = 0, pretend = 0, frame = 0
 749              		@ frame_needed = 0, uses_anonymous_args = 0
 750              		.loc 1 300 1 is_stmt 0 view .LVU199
 751 0000 08B5     		push	{r3, lr}
 752              	.LCFI16:
 753              		.cfi_def_cfa_offset 8
 754              		.cfi_offset 3, -8
 755              		.cfi_offset 14, -4
 301:../../init/config/Src/stm32h7xx_hal_msp.c **** if(hspi->Instance==SPI2)
 756              		.loc 1 301 1 is_stmt 1 view .LVU200
 757              		.loc 1 301 8 is_stmt 0 view .LVU201
 758 0002 0268     		ldr	r2, [r0]
 759              		.loc 1 301 3 view .LVU202
 760 0004 084B     		ldr	r3, .L56
 761 0006 9A42     		cmp	r2, r3
 762 0008 00D0     		beq	.L55
 763              	.LVL39:
 764              	.L52:
 302:../../init/config/Src/stm32h7xx_hal_msp.c **** 	{
 303:../../init/config/Src/stm32h7xx_hal_msp.c **** 	/* Peripheral clock disable */
 304:../../init/config/Src/stm32h7xx_hal_msp.c **** 	__HAL_RCC_SPI2_CLK_DISABLE();
 305:../../init/config/Src/stm32h7xx_hal_msp.c **** 
 306:../../init/config/Src/stm32h7xx_hal_msp.c **** 	/**SPI2 GPIO Configuration
 307:../../init/config/Src/stm32h7xx_hal_msp.c **** 	PB10     ------> SPI2_SCK
 308:../../init/config/Src/stm32h7xx_hal_msp.c **** 	PB14     ------> SPI2_MISO
 309:../../init/config/Src/stm32h7xx_hal_msp.c **** 	PB15     ------> SPI2_MOSI
ARM GAS  /tmp/ccSPuacA.s 			page 22


 310:../../init/config/Src/stm32h7xx_hal_msp.c **** 	*/
 311:../../init/config/Src/stm32h7xx_hal_msp.c **** 	HAL_GPIO_DeInit(GPIOB, GPIO_PIN_10|GPIO_PIN_14|GPIO_PIN_15);
 312:../../init/config/Src/stm32h7xx_hal_msp.c **** 	}
 313:../../init/config/Src/stm32h7xx_hal_msp.c **** 
 314:../../init/config/Src/stm32h7xx_hal_msp.c **** } /* HAL_SPI_MspDeInit */
 765              		.loc 1 314 1 view .LVU203
 766 000a 08BD     		pop	{r3, pc}
 767              	.LVL40:
 768              	.L55:
 304:../../init/config/Src/stm32h7xx_hal_msp.c **** 
 769              		.loc 1 304 2 is_stmt 1 view .LVU204
 770 000c 074A     		ldr	r2, .L56+4
 771 000e D2F8E830 		ldr	r3, [r2, #232]
 772 0012 23F48043 		bic	r3, r3, #16384
 773 0016 C2F8E830 		str	r3, [r2, #232]
 311:../../init/config/Src/stm32h7xx_hal_msp.c **** 	}
 774              		.loc 1 311 2 view .LVU205
 775 001a 4FF44441 		mov	r1, #50176
 776 001e 0448     		ldr	r0, .L56+8
 777              	.LVL41:
 311:../../init/config/Src/stm32h7xx_hal_msp.c **** 	}
 778              		.loc 1 311 2 is_stmt 0 view .LVU206
 779 0020 FFF7FEFF 		bl	HAL_GPIO_DeInit
 780              	.LVL42:
 781              		.loc 1 314 1 view .LVU207
 782 0024 F1E7     		b	.L52
 783              	.L57:
 784 0026 00BF     		.align	2
 785              	.L56:
 786 0028 00380040 		.word	1073756160
 787 002c 00440258 		.word	1476543488
 788 0030 00040258 		.word	1476527104
 789              		.cfi_endproc
 790              	.LFE339:
 792              		.section	.text.HAL_UART_MspInit,"ax",%progbits
 793              		.align	1
 794              		.global	HAL_UART_MspInit
 795              		.syntax unified
 796              		.thumb
 797              		.thumb_func
 799              	HAL_UART_MspInit:
 800              	.LVL43:
 801              	.LFB340:
 315:../../init/config/Src/stm32h7xx_hal_msp.c **** 
 316:../../init/config/Src/stm32h7xx_hal_msp.c **** 
 317:../../init/config/Src/stm32h7xx_hal_msp.c **** /*******************************************************************************
 318:../../init/config/Src/stm32h7xx_hal_msp.c **** *                                                                              *
 319:../../init/config/Src/stm32h7xx_hal_msp.c **** * PROCEDURE:                                                                   *
 320:../../init/config/Src/stm32h7xx_hal_msp.c **** * 		HAL_UART_MspInit                                                       *
 321:../../init/config/Src/stm32h7xx_hal_msp.c **** *                                                                              *
 322:../../init/config/Src/stm32h7xx_hal_msp.c **** * DESCRIPTION:                                                                 *
 323:../../init/config/Src/stm32h7xx_hal_msp.c **** *		SPI MSP initialization                                                 *
 324:../../init/config/Src/stm32h7xx_hal_msp.c **** *                                                                              *
 325:../../init/config/Src/stm32h7xx_hal_msp.c **** *******************************************************************************/
 326:../../init/config/Src/stm32h7xx_hal_msp.c **** void HAL_UART_MspInit
 327:../../init/config/Src/stm32h7xx_hal_msp.c **** 	(
 328:../../init/config/Src/stm32h7xx_hal_msp.c **** 	UART_HandleTypeDef* huart
ARM GAS  /tmp/ccSPuacA.s 			page 23


 329:../../init/config/Src/stm32h7xx_hal_msp.c **** 	)
 330:../../init/config/Src/stm32h7xx_hal_msp.c **** {
 802              		.loc 1 330 1 is_stmt 1 view -0
 803              		.cfi_startproc
 804              		@ args = 0, pretend = 0, frame = 232
 805              		@ frame_needed = 0, uses_anonymous_args = 0
 806              		.loc 1 330 1 is_stmt 0 view .LVU209
 807 0000 10B5     		push	{r4, lr}
 808              	.LCFI17:
 809              		.cfi_def_cfa_offset 8
 810              		.cfi_offset 4, -8
 811              		.cfi_offset 14, -4
 812 0002 BAB0     		sub	sp, sp, #232
 813              	.LCFI18:
 814              		.cfi_def_cfa_offset 240
 815 0004 0446     		mov	r4, r0
 331:../../init/config/Src/stm32h7xx_hal_msp.c **** /* Initialization structs */
 332:../../init/config/Src/stm32h7xx_hal_msp.c **** GPIO_InitTypeDef         GPIO_InitStruct     = {0};
 816              		.loc 1 332 1 is_stmt 1 view .LVU210
 817              		.loc 1 332 26 is_stmt 0 view .LVU211
 818 0006 0021     		movs	r1, #0
 819 0008 3591     		str	r1, [sp, #212]
 820 000a 3691     		str	r1, [sp, #216]
 821 000c 3791     		str	r1, [sp, #220]
 822 000e 3891     		str	r1, [sp, #224]
 823 0010 3991     		str	r1, [sp, #228]
 333:../../init/config/Src/stm32h7xx_hal_msp.c **** RCC_PeriphCLKInitTypeDef PeriphClkInitStruct = {0};
 824              		.loc 1 333 1 is_stmt 1 view .LVU212
 825              		.loc 1 333 26 is_stmt 0 view .LVU213
 826 0012 BC22     		movs	r2, #188
 827 0014 06A8     		add	r0, sp, #24
 828              	.LVL44:
 829              		.loc 1 333 26 view .LVU214
 830 0016 FFF7FEFF 		bl	memset
 831              	.LVL45:
 334:../../init/config/Src/stm32h7xx_hal_msp.c **** 
 335:../../init/config/Src/stm32h7xx_hal_msp.c **** /* Wireless interface UART */
 336:../../init/config/Src/stm32h7xx_hal_msp.c **** if ( huart->Instance == UART4 )
 832              		.loc 1 336 1 is_stmt 1 view .LVU215
 833              		.loc 1 336 11 is_stmt 0 view .LVU216
 834 001a 2368     		ldr	r3, [r4]
 835              		.loc 1 336 4 view .LVU217
 836 001c 4D4A     		ldr	r2, .L72
 837 001e 9342     		cmp	r3, r2
 838 0020 07D0     		beq	.L66
 337:../../init/config/Src/stm32h7xx_hal_msp.c **** 	{
 338:../../init/config/Src/stm32h7xx_hal_msp.c **** 	/* Initializes the peripherals clock */
 339:../../init/config/Src/stm32h7xx_hal_msp.c **** 	PeriphClkInitStruct.PeriphClockSelection      = RCC_PERIPHCLK_UART4;
 340:../../init/config/Src/stm32h7xx_hal_msp.c **** 	PeriphClkInitStruct.Usart234578ClockSelection = RCC_USART234578CLKSOURCE_D2PCLK1;
 341:../../init/config/Src/stm32h7xx_hal_msp.c **** 	if ( HAL_RCCEx_PeriphCLKConfig( &PeriphClkInitStruct ) != HAL_OK )
 342:../../init/config/Src/stm32h7xx_hal_msp.c **** 		{
 343:../../init/config/Src/stm32h7xx_hal_msp.c **** 		Error_Handler();
 344:../../init/config/Src/stm32h7xx_hal_msp.c **** 		}
 345:../../init/config/Src/stm32h7xx_hal_msp.c **** 
 346:../../init/config/Src/stm32h7xx_hal_msp.c **** 	/* Peripheral clock enable */
 347:../../init/config/Src/stm32h7xx_hal_msp.c **** 	__HAL_RCC_UART4_CLK_ENABLE();
 348:../../init/config/Src/stm32h7xx_hal_msp.c **** 	__HAL_RCC_GPIOA_CLK_ENABLE();
ARM GAS  /tmp/ccSPuacA.s 			page 24


 349:../../init/config/Src/stm32h7xx_hal_msp.c **** 
 350:../../init/config/Src/stm32h7xx_hal_msp.c **** 	/* UART4 GPIO Configuration
 351:../../init/config/Src/stm32h7xx_hal_msp.c **** 	PA0     ------> UART4_TX
 352:../../init/config/Src/stm32h7xx_hal_msp.c **** 	PA1     ------> UART4_RX */
 353:../../init/config/Src/stm32h7xx_hal_msp.c **** 	GPIO_InitStruct.Pin       = GPIO_PIN_0 | GPIO_PIN_1;
 354:../../init/config/Src/stm32h7xx_hal_msp.c **** 	GPIO_InitStruct.Mode      = GPIO_MODE_AF_PP;
 355:../../init/config/Src/stm32h7xx_hal_msp.c **** 	GPIO_InitStruct.Pull      = GPIO_NOPULL;
 356:../../init/config/Src/stm32h7xx_hal_msp.c **** 	GPIO_InitStruct.Speed     = GPIO_SPEED_FREQ_LOW;
 357:../../init/config/Src/stm32h7xx_hal_msp.c **** 	GPIO_InitStruct.Alternate = GPIO_AF8_UART4;
 358:../../init/config/Src/stm32h7xx_hal_msp.c **** 	HAL_GPIO_Init(GPIOA, &GPIO_InitStruct);
 359:../../init/config/Src/stm32h7xx_hal_msp.c **** 	} /* if ( huart->Instance == UART4 )*/
 360:../../init/config/Src/stm32h7xx_hal_msp.c **** 
 361:../../init/config/Src/stm32h7xx_hal_msp.c **** /* USB UART */
 362:../../init/config/Src/stm32h7xx_hal_msp.c **** else if ( huart->Instance == USART1 )
 839              		.loc 1 362 6 is_stmt 1 view .LVU218
 840              		.loc 1 362 9 is_stmt 0 view .LVU219
 841 0022 4D4A     		ldr	r2, .L72+4
 842 0024 9342     		cmp	r3, r2
 843 0026 34D0     		beq	.L67
 363:../../init/config/Src/stm32h7xx_hal_msp.c **** 	{
 364:../../init/config/Src/stm32h7xx_hal_msp.c **** 	/* Initializes the peripherals clock */
 365:../../init/config/Src/stm32h7xx_hal_msp.c **** 	PeriphClkInitStruct.PeriphClockSelection  = RCC_PERIPHCLK_USART1;
 366:../../init/config/Src/stm32h7xx_hal_msp.c **** 	PeriphClkInitStruct.Usart16ClockSelection = RCC_USART16CLKSOURCE_D2PCLK2;
 367:../../init/config/Src/stm32h7xx_hal_msp.c **** 	if ( HAL_RCCEx_PeriphCLKConfig(&PeriphClkInitStruct) != HAL_OK )
 368:../../init/config/Src/stm32h7xx_hal_msp.c **** 		{
 369:../../init/config/Src/stm32h7xx_hal_msp.c **** 		Error_Handler();
 370:../../init/config/Src/stm32h7xx_hal_msp.c **** 		}
 371:../../init/config/Src/stm32h7xx_hal_msp.c **** 
 372:../../init/config/Src/stm32h7xx_hal_msp.c **** 	/* Peripheral clock enable */
 373:../../init/config/Src/stm32h7xx_hal_msp.c **** 	__HAL_RCC_USART1_CLK_ENABLE();
 374:../../init/config/Src/stm32h7xx_hal_msp.c **** 	__HAL_RCC_GPIOA_CLK_ENABLE();
 375:../../init/config/Src/stm32h7xx_hal_msp.c **** 
 376:../../init/config/Src/stm32h7xx_hal_msp.c **** 	/* USART1 GPIO Configuration
 377:../../init/config/Src/stm32h7xx_hal_msp.c **** 	PA9     ------> USART1_TX
 378:../../init/config/Src/stm32h7xx_hal_msp.c **** 	PA10     ------> USART1_RX */
 379:../../init/config/Src/stm32h7xx_hal_msp.c **** 	GPIO_InitStruct.Pin       = GPIO_PIN_9 | GPIO_PIN_10;
 380:../../init/config/Src/stm32h7xx_hal_msp.c **** 	GPIO_InitStruct.Mode      = GPIO_MODE_AF_PP;
 381:../../init/config/Src/stm32h7xx_hal_msp.c **** 	GPIO_InitStruct.Pull      = GPIO_NOPULL;
 382:../../init/config/Src/stm32h7xx_hal_msp.c **** 	GPIO_InitStruct.Speed     = GPIO_SPEED_FREQ_LOW;
 383:../../init/config/Src/stm32h7xx_hal_msp.c **** 	GPIO_InitStruct.Alternate = GPIO_AF7_USART1;
 384:../../init/config/Src/stm32h7xx_hal_msp.c **** 	HAL_GPIO_Init( GPIOA, &GPIO_InitStruct );
 385:../../init/config/Src/stm32h7xx_hal_msp.c **** 	} /* if ( huart->instance == USART1 ) */
 386:../../init/config/Src/stm32h7xx_hal_msp.c **** 
 387:../../init/config/Src/stm32h7xx_hal_msp.c **** /* Valve control UART */
 388:../../init/config/Src/stm32h7xx_hal_msp.c **** else if( huart->Instance == USART2 )
 844              		.loc 1 388 6 is_stmt 1 view .LVU220
 845              		.loc 1 388 8 is_stmt 0 view .LVU221
 846 0028 4C4A     		ldr	r2, .L72+8
 847 002a 9342     		cmp	r3, r2
 848 002c 62D0     		beq	.L68
 849              	.L58:
 389:../../init/config/Src/stm32h7xx_hal_msp.c **** 	{
 390:../../init/config/Src/stm32h7xx_hal_msp.c **** 	/* Initializes the peripherals clock */
 391:../../init/config/Src/stm32h7xx_hal_msp.c **** 	PeriphClkInitStruct.PeriphClockSelection      = RCC_PERIPHCLK_USART2;
 392:../../init/config/Src/stm32h7xx_hal_msp.c **** 	PeriphClkInitStruct.Usart234578ClockSelection = RCC_USART234578CLKSOURCE_D2PCLK1;
 393:../../init/config/Src/stm32h7xx_hal_msp.c **** 	if ( HAL_RCCEx_PeriphCLKConfig( &PeriphClkInitStruct ) != HAL_OK )
 394:../../init/config/Src/stm32h7xx_hal_msp.c **** 		{
ARM GAS  /tmp/ccSPuacA.s 			page 25


 395:../../init/config/Src/stm32h7xx_hal_msp.c **** 		Error_Handler();
 396:../../init/config/Src/stm32h7xx_hal_msp.c **** 		}
 397:../../init/config/Src/stm32h7xx_hal_msp.c **** 
 398:../../init/config/Src/stm32h7xx_hal_msp.c **** 	/* Peripheral clock enable */
 399:../../init/config/Src/stm32h7xx_hal_msp.c **** 	__HAL_RCC_USART2_CLK_ENABLE();
 400:../../init/config/Src/stm32h7xx_hal_msp.c **** 	__HAL_RCC_GPIOA_CLK_ENABLE();
 401:../../init/config/Src/stm32h7xx_hal_msp.c **** 
 402:../../init/config/Src/stm32h7xx_hal_msp.c **** 	/* USART2 GPIO Configuration
 403:../../init/config/Src/stm32h7xx_hal_msp.c **** 	PA2     ------> USART2_TX
 404:../../init/config/Src/stm32h7xx_hal_msp.c **** 	PA3     ------> USART2_RX */
 405:../../init/config/Src/stm32h7xx_hal_msp.c **** 	GPIO_InitStruct.Pin       = GPIO_PIN_2 | GPIO_PIN_3;
 406:../../init/config/Src/stm32h7xx_hal_msp.c **** 	GPIO_InitStruct.Mode      = GPIO_MODE_AF_PP;
 407:../../init/config/Src/stm32h7xx_hal_msp.c **** 	GPIO_InitStruct.Pull      = GPIO_NOPULL;
 408:../../init/config/Src/stm32h7xx_hal_msp.c **** 	GPIO_InitStruct.Speed     = GPIO_SPEED_FREQ_LOW;
 409:../../init/config/Src/stm32h7xx_hal_msp.c **** 	GPIO_InitStruct.Alternate = GPIO_AF7_USART2;
 410:../../init/config/Src/stm32h7xx_hal_msp.c **** 	HAL_GPIO_Init( GPIOA, &GPIO_InitStruct );
 411:../../init/config/Src/stm32h7xx_hal_msp.c **** 	} /* else if ( huart->Instance == USART2 ) */
 412:../../init/config/Src/stm32h7xx_hal_msp.c **** 
 413:../../init/config/Src/stm32h7xx_hal_msp.c **** } /* HAL_UART_MspInit */
 850              		.loc 1 413 1 view .LVU222
 851 002e 3AB0     		add	sp, sp, #232
 852              	.LCFI19:
 853              		.cfi_remember_state
 854              		.cfi_def_cfa_offset 8
 855              		@ sp needed
 856 0030 10BD     		pop	{r4, pc}
 857              	.LVL46:
 858              	.L66:
 859              	.LCFI20:
 860              		.cfi_restore_state
 339:../../init/config/Src/stm32h7xx_hal_msp.c **** 	PeriphClkInitStruct.Usart234578ClockSelection = RCC_USART234578CLKSOURCE_D2PCLK1;
 861              		.loc 1 339 2 is_stmt 1 view .LVU223
 339:../../init/config/Src/stm32h7xx_hal_msp.c **** 	PeriphClkInitStruct.Usart234578ClockSelection = RCC_USART234578CLKSOURCE_D2PCLK1;
 862              		.loc 1 339 48 is_stmt 0 view .LVU224
 863 0032 0223     		movs	r3, #2
 864 0034 0693     		str	r3, [sp, #24]
 340:../../init/config/Src/stm32h7xx_hal_msp.c **** 	if ( HAL_RCCEx_PeriphCLKConfig( &PeriphClkInitStruct ) != HAL_OK )
 865              		.loc 1 340 2 is_stmt 1 view .LVU225
 341:../../init/config/Src/stm32h7xx_hal_msp.c **** 		{
 866              		.loc 1 341 2 view .LVU226
 341:../../init/config/Src/stm32h7xx_hal_msp.c **** 		{
 867              		.loc 1 341 7 is_stmt 0 view .LVU227
 868 0036 06A8     		add	r0, sp, #24
 869 0038 FFF7FEFF 		bl	HAL_RCCEx_PeriphCLKConfig
 870              	.LVL47:
 341:../../init/config/Src/stm32h7xx_hal_msp.c **** 		{
 871              		.loc 1 341 5 view .LVU228
 872 003c 30BB     		cbnz	r0, .L69
 873              	.L60:
 347:../../init/config/Src/stm32h7xx_hal_msp.c **** 	__HAL_RCC_GPIOA_CLK_ENABLE();
 874              		.loc 1 347 2 is_stmt 1 view .LVU229
 875              	.LBB13:
 347:../../init/config/Src/stm32h7xx_hal_msp.c **** 	__HAL_RCC_GPIOA_CLK_ENABLE();
 876              		.loc 1 347 2 view .LVU230
 347:../../init/config/Src/stm32h7xx_hal_msp.c **** 	__HAL_RCC_GPIOA_CLK_ENABLE();
 877              		.loc 1 347 2 view .LVU231
 878 003e 484B     		ldr	r3, .L72+12
ARM GAS  /tmp/ccSPuacA.s 			page 26


 879 0040 D3F8E820 		ldr	r2, [r3, #232]
 880 0044 42F40022 		orr	r2, r2, #524288
 881 0048 C3F8E820 		str	r2, [r3, #232]
 347:../../init/config/Src/stm32h7xx_hal_msp.c **** 	__HAL_RCC_GPIOA_CLK_ENABLE();
 882              		.loc 1 347 2 view .LVU232
 883 004c D3F8E820 		ldr	r2, [r3, #232]
 884 0050 02F40022 		and	r2, r2, #524288
 885 0054 0092     		str	r2, [sp]
 347:../../init/config/Src/stm32h7xx_hal_msp.c **** 	__HAL_RCC_GPIOA_CLK_ENABLE();
 886              		.loc 1 347 2 view .LVU233
 887 0056 009A     		ldr	r2, [sp]
 888              	.LBE13:
 347:../../init/config/Src/stm32h7xx_hal_msp.c **** 	__HAL_RCC_GPIOA_CLK_ENABLE();
 889              		.loc 1 347 2 view .LVU234
 348:../../init/config/Src/stm32h7xx_hal_msp.c **** 
 890              		.loc 1 348 2 view .LVU235
 891              	.LBB14:
 348:../../init/config/Src/stm32h7xx_hal_msp.c **** 
 892              		.loc 1 348 2 view .LVU236
 348:../../init/config/Src/stm32h7xx_hal_msp.c **** 
 893              		.loc 1 348 2 view .LVU237
 894 0058 D3F8E020 		ldr	r2, [r3, #224]
 895 005c 42F00102 		orr	r2, r2, #1
 896 0060 C3F8E020 		str	r2, [r3, #224]
 348:../../init/config/Src/stm32h7xx_hal_msp.c **** 
 897              		.loc 1 348 2 view .LVU238
 898 0064 D3F8E030 		ldr	r3, [r3, #224]
 899 0068 03F00103 		and	r3, r3, #1
 900 006c 0193     		str	r3, [sp, #4]
 348:../../init/config/Src/stm32h7xx_hal_msp.c **** 
 901              		.loc 1 348 2 view .LVU239
 902 006e 019B     		ldr	r3, [sp, #4]
 903              	.LBE14:
 348:../../init/config/Src/stm32h7xx_hal_msp.c **** 
 904              		.loc 1 348 2 view .LVU240
 353:../../init/config/Src/stm32h7xx_hal_msp.c **** 	GPIO_InitStruct.Mode      = GPIO_MODE_AF_PP;
 905              		.loc 1 353 2 view .LVU241
 353:../../init/config/Src/stm32h7xx_hal_msp.c **** 	GPIO_InitStruct.Mode      = GPIO_MODE_AF_PP;
 906              		.loc 1 353 28 is_stmt 0 view .LVU242
 907 0070 0323     		movs	r3, #3
 908 0072 3593     		str	r3, [sp, #212]
 354:../../init/config/Src/stm32h7xx_hal_msp.c **** 	GPIO_InitStruct.Pull      = GPIO_NOPULL;
 909              		.loc 1 354 2 is_stmt 1 view .LVU243
 354:../../init/config/Src/stm32h7xx_hal_msp.c **** 	GPIO_InitStruct.Pull      = GPIO_NOPULL;
 910              		.loc 1 354 28 is_stmt 0 view .LVU244
 911 0074 0223     		movs	r3, #2
 912 0076 3693     		str	r3, [sp, #216]
 355:../../init/config/Src/stm32h7xx_hal_msp.c **** 	GPIO_InitStruct.Speed     = GPIO_SPEED_FREQ_LOW;
 913              		.loc 1 355 2 is_stmt 1 view .LVU245
 355:../../init/config/Src/stm32h7xx_hal_msp.c **** 	GPIO_InitStruct.Speed     = GPIO_SPEED_FREQ_LOW;
 914              		.loc 1 355 28 is_stmt 0 view .LVU246
 915 0078 0023     		movs	r3, #0
 916 007a 3793     		str	r3, [sp, #220]
 356:../../init/config/Src/stm32h7xx_hal_msp.c **** 	GPIO_InitStruct.Alternate = GPIO_AF8_UART4;
 917              		.loc 1 356 2 is_stmt 1 view .LVU247
 356:../../init/config/Src/stm32h7xx_hal_msp.c **** 	GPIO_InitStruct.Alternate = GPIO_AF8_UART4;
 918              		.loc 1 356 28 is_stmt 0 view .LVU248
ARM GAS  /tmp/ccSPuacA.s 			page 27


 919 007c 3893     		str	r3, [sp, #224]
 357:../../init/config/Src/stm32h7xx_hal_msp.c **** 	HAL_GPIO_Init(GPIOA, &GPIO_InitStruct);
 920              		.loc 1 357 2 is_stmt 1 view .LVU249
 357:../../init/config/Src/stm32h7xx_hal_msp.c **** 	HAL_GPIO_Init(GPIOA, &GPIO_InitStruct);
 921              		.loc 1 357 28 is_stmt 0 view .LVU250
 922 007e 0823     		movs	r3, #8
 923 0080 3993     		str	r3, [sp, #228]
 358:../../init/config/Src/stm32h7xx_hal_msp.c **** 	} /* if ( huart->Instance == UART4 )*/
 924              		.loc 1 358 2 is_stmt 1 view .LVU251
 925 0082 35A9     		add	r1, sp, #212
 926 0084 3748     		ldr	r0, .L72+16
 927 0086 FFF7FEFF 		bl	HAL_GPIO_Init
 928              	.LVL48:
 929 008a D0E7     		b	.L58
 930              	.L69:
 931              	.LBB15:
 343:../../init/config/Src/stm32h7xx_hal_msp.c **** 		}
 932              		.loc 1 343 3 view .LVU252
 933 008c FFF7FEFF 		bl	Error_Handler
 934              	.LVL49:
 935 0090 D5E7     		b	.L60
 936              	.L67:
 937              	.LBE15:
 365:../../init/config/Src/stm32h7xx_hal_msp.c **** 	PeriphClkInitStruct.Usart16ClockSelection = RCC_USART16CLKSOURCE_D2PCLK2;
 938              		.loc 1 365 2 view .LVU253
 365:../../init/config/Src/stm32h7xx_hal_msp.c **** 	PeriphClkInitStruct.Usart16ClockSelection = RCC_USART16CLKSOURCE_D2PCLK2;
 939              		.loc 1 365 44 is_stmt 0 view .LVU254
 940 0092 0123     		movs	r3, #1
 941 0094 0693     		str	r3, [sp, #24]
 366:../../init/config/Src/stm32h7xx_hal_msp.c **** 	if ( HAL_RCCEx_PeriphCLKConfig(&PeriphClkInitStruct) != HAL_OK )
 942              		.loc 1 366 2 is_stmt 1 view .LVU255
 367:../../init/config/Src/stm32h7xx_hal_msp.c **** 		{
 943              		.loc 1 367 2 view .LVU256
 367:../../init/config/Src/stm32h7xx_hal_msp.c **** 		{
 944              		.loc 1 367 7 is_stmt 0 view .LVU257
 945 0096 06A8     		add	r0, sp, #24
 946 0098 FFF7FEFF 		bl	HAL_RCCEx_PeriphCLKConfig
 947              	.LVL50:
 367:../../init/config/Src/stm32h7xx_hal_msp.c **** 		{
 948              		.loc 1 367 5 view .LVU258
 949 009c 38BB     		cbnz	r0, .L70
 950              	.L63:
 373:../../init/config/Src/stm32h7xx_hal_msp.c **** 	__HAL_RCC_GPIOA_CLK_ENABLE();
 951              		.loc 1 373 2 is_stmt 1 view .LVU259
 952              	.LBB16:
 373:../../init/config/Src/stm32h7xx_hal_msp.c **** 	__HAL_RCC_GPIOA_CLK_ENABLE();
 953              		.loc 1 373 2 view .LVU260
 373:../../init/config/Src/stm32h7xx_hal_msp.c **** 	__HAL_RCC_GPIOA_CLK_ENABLE();
 954              		.loc 1 373 2 view .LVU261
 955 009e 304B     		ldr	r3, .L72+12
 956 00a0 D3F8F020 		ldr	r2, [r3, #240]
 957 00a4 42F01002 		orr	r2, r2, #16
 958 00a8 C3F8F020 		str	r2, [r3, #240]
 373:../../init/config/Src/stm32h7xx_hal_msp.c **** 	__HAL_RCC_GPIOA_CLK_ENABLE();
 959              		.loc 1 373 2 view .LVU262
 960 00ac D3F8F020 		ldr	r2, [r3, #240]
 961 00b0 02F01002 		and	r2, r2, #16
ARM GAS  /tmp/ccSPuacA.s 			page 28


 962 00b4 0292     		str	r2, [sp, #8]
 373:../../init/config/Src/stm32h7xx_hal_msp.c **** 	__HAL_RCC_GPIOA_CLK_ENABLE();
 963              		.loc 1 373 2 view .LVU263
 964 00b6 029A     		ldr	r2, [sp, #8]
 965              	.LBE16:
 373:../../init/config/Src/stm32h7xx_hal_msp.c **** 	__HAL_RCC_GPIOA_CLK_ENABLE();
 966              		.loc 1 373 2 view .LVU264
 374:../../init/config/Src/stm32h7xx_hal_msp.c **** 
 967              		.loc 1 374 2 view .LVU265
 968              	.LBB17:
 374:../../init/config/Src/stm32h7xx_hal_msp.c **** 
 969              		.loc 1 374 2 view .LVU266
 374:../../init/config/Src/stm32h7xx_hal_msp.c **** 
 970              		.loc 1 374 2 view .LVU267
 971 00b8 D3F8E020 		ldr	r2, [r3, #224]
 972 00bc 42F00102 		orr	r2, r2, #1
 973 00c0 C3F8E020 		str	r2, [r3, #224]
 374:../../init/config/Src/stm32h7xx_hal_msp.c **** 
 974              		.loc 1 374 2 view .LVU268
 975 00c4 D3F8E030 		ldr	r3, [r3, #224]
 976 00c8 03F00103 		and	r3, r3, #1
 977 00cc 0393     		str	r3, [sp, #12]
 374:../../init/config/Src/stm32h7xx_hal_msp.c **** 
 978              		.loc 1 374 2 view .LVU269
 979 00ce 039B     		ldr	r3, [sp, #12]
 980              	.LBE17:
 374:../../init/config/Src/stm32h7xx_hal_msp.c **** 
 981              		.loc 1 374 2 view .LVU270
 379:../../init/config/Src/stm32h7xx_hal_msp.c **** 	GPIO_InitStruct.Mode      = GPIO_MODE_AF_PP;
 982              		.loc 1 379 2 view .LVU271
 379:../../init/config/Src/stm32h7xx_hal_msp.c **** 	GPIO_InitStruct.Mode      = GPIO_MODE_AF_PP;
 983              		.loc 1 379 28 is_stmt 0 view .LVU272
 984 00d0 4FF4C063 		mov	r3, #1536
 985 00d4 3593     		str	r3, [sp, #212]
 380:../../init/config/Src/stm32h7xx_hal_msp.c **** 	GPIO_InitStruct.Pull      = GPIO_NOPULL;
 986              		.loc 1 380 2 is_stmt 1 view .LVU273
 380:../../init/config/Src/stm32h7xx_hal_msp.c **** 	GPIO_InitStruct.Pull      = GPIO_NOPULL;
 987              		.loc 1 380 28 is_stmt 0 view .LVU274
 988 00d6 0223     		movs	r3, #2
 989 00d8 3693     		str	r3, [sp, #216]
 381:../../init/config/Src/stm32h7xx_hal_msp.c **** 	GPIO_InitStruct.Speed     = GPIO_SPEED_FREQ_LOW;
 990              		.loc 1 381 2 is_stmt 1 view .LVU275
 381:../../init/config/Src/stm32h7xx_hal_msp.c **** 	GPIO_InitStruct.Speed     = GPIO_SPEED_FREQ_LOW;
 991              		.loc 1 381 28 is_stmt 0 view .LVU276
 992 00da 0023     		movs	r3, #0
 993 00dc 3793     		str	r3, [sp, #220]
 382:../../init/config/Src/stm32h7xx_hal_msp.c **** 	GPIO_InitStruct.Alternate = GPIO_AF7_USART1;
 994              		.loc 1 382 2 is_stmt 1 view .LVU277
 382:../../init/config/Src/stm32h7xx_hal_msp.c **** 	GPIO_InitStruct.Alternate = GPIO_AF7_USART1;
 995              		.loc 1 382 28 is_stmt 0 view .LVU278
 996 00de 3893     		str	r3, [sp, #224]
 383:../../init/config/Src/stm32h7xx_hal_msp.c **** 	HAL_GPIO_Init( GPIOA, &GPIO_InitStruct );
 997              		.loc 1 383 2 is_stmt 1 view .LVU279
 383:../../init/config/Src/stm32h7xx_hal_msp.c **** 	HAL_GPIO_Init( GPIOA, &GPIO_InitStruct );
 998              		.loc 1 383 28 is_stmt 0 view .LVU280
 999 00e0 0723     		movs	r3, #7
 1000 00e2 3993     		str	r3, [sp, #228]
ARM GAS  /tmp/ccSPuacA.s 			page 29


 384:../../init/config/Src/stm32h7xx_hal_msp.c **** 	} /* if ( huart->instance == USART1 ) */
 1001              		.loc 1 384 2 is_stmt 1 view .LVU281
 1002 00e4 35A9     		add	r1, sp, #212
 1003 00e6 1F48     		ldr	r0, .L72+16
 1004 00e8 FFF7FEFF 		bl	HAL_GPIO_Init
 1005              	.LVL51:
 1006 00ec 9FE7     		b	.L58
 1007              	.L70:
 1008              	.LBB18:
 369:../../init/config/Src/stm32h7xx_hal_msp.c **** 		}
 1009              		.loc 1 369 3 view .LVU282
 1010 00ee FFF7FEFF 		bl	Error_Handler
 1011              	.LVL52:
 1012 00f2 D4E7     		b	.L63
 1013              	.L68:
 1014              	.LBE18:
 391:../../init/config/Src/stm32h7xx_hal_msp.c **** 	PeriphClkInitStruct.Usart234578ClockSelection = RCC_USART234578CLKSOURCE_D2PCLK1;
 1015              		.loc 1 391 2 view .LVU283
 391:../../init/config/Src/stm32h7xx_hal_msp.c **** 	PeriphClkInitStruct.Usart234578ClockSelection = RCC_USART234578CLKSOURCE_D2PCLK1;
 1016              		.loc 1 391 48 is_stmt 0 view .LVU284
 1017 00f4 0223     		movs	r3, #2
 1018 00f6 0693     		str	r3, [sp, #24]
 392:../../init/config/Src/stm32h7xx_hal_msp.c **** 	if ( HAL_RCCEx_PeriphCLKConfig( &PeriphClkInitStruct ) != HAL_OK )
 1019              		.loc 1 392 2 is_stmt 1 view .LVU285
 393:../../init/config/Src/stm32h7xx_hal_msp.c **** 		{
 1020              		.loc 1 393 2 view .LVU286
 393:../../init/config/Src/stm32h7xx_hal_msp.c **** 		{
 1021              		.loc 1 393 7 is_stmt 0 view .LVU287
 1022 00f8 06A8     		add	r0, sp, #24
 1023 00fa FFF7FEFF 		bl	HAL_RCCEx_PeriphCLKConfig
 1024              	.LVL53:
 393:../../init/config/Src/stm32h7xx_hal_msp.c **** 		{
 1025              		.loc 1 393 5 view .LVU288
 1026 00fe 30BB     		cbnz	r0, .L71
 1027              	.L64:
 399:../../init/config/Src/stm32h7xx_hal_msp.c **** 	__HAL_RCC_GPIOA_CLK_ENABLE();
 1028              		.loc 1 399 2 is_stmt 1 view .LVU289
 1029              	.LBB19:
 399:../../init/config/Src/stm32h7xx_hal_msp.c **** 	__HAL_RCC_GPIOA_CLK_ENABLE();
 1030              		.loc 1 399 2 view .LVU290
 399:../../init/config/Src/stm32h7xx_hal_msp.c **** 	__HAL_RCC_GPIOA_CLK_ENABLE();
 1031              		.loc 1 399 2 view .LVU291
 1032 0100 174B     		ldr	r3, .L72+12
 1033 0102 D3F8E820 		ldr	r2, [r3, #232]
 1034 0106 42F40032 		orr	r2, r2, #131072
 1035 010a C3F8E820 		str	r2, [r3, #232]
 399:../../init/config/Src/stm32h7xx_hal_msp.c **** 	__HAL_RCC_GPIOA_CLK_ENABLE();
 1036              		.loc 1 399 2 view .LVU292
 1037 010e D3F8E820 		ldr	r2, [r3, #232]
 1038 0112 02F40032 		and	r2, r2, #131072
 1039 0116 0492     		str	r2, [sp, #16]
 399:../../init/config/Src/stm32h7xx_hal_msp.c **** 	__HAL_RCC_GPIOA_CLK_ENABLE();
 1040              		.loc 1 399 2 view .LVU293
 1041 0118 049A     		ldr	r2, [sp, #16]
 1042              	.LBE19:
 399:../../init/config/Src/stm32h7xx_hal_msp.c **** 	__HAL_RCC_GPIOA_CLK_ENABLE();
 1043              		.loc 1 399 2 view .LVU294
ARM GAS  /tmp/ccSPuacA.s 			page 30


 400:../../init/config/Src/stm32h7xx_hal_msp.c **** 
 1044              		.loc 1 400 2 view .LVU295
 1045              	.LBB20:
 400:../../init/config/Src/stm32h7xx_hal_msp.c **** 
 1046              		.loc 1 400 2 view .LVU296
 400:../../init/config/Src/stm32h7xx_hal_msp.c **** 
 1047              		.loc 1 400 2 view .LVU297
 1048 011a D3F8E020 		ldr	r2, [r3, #224]
 1049 011e 42F00102 		orr	r2, r2, #1
 1050 0122 C3F8E020 		str	r2, [r3, #224]
 400:../../init/config/Src/stm32h7xx_hal_msp.c **** 
 1051              		.loc 1 400 2 view .LVU298
 1052 0126 D3F8E030 		ldr	r3, [r3, #224]
 1053 012a 03F00103 		and	r3, r3, #1
 1054 012e 0593     		str	r3, [sp, #20]
 400:../../init/config/Src/stm32h7xx_hal_msp.c **** 
 1055              		.loc 1 400 2 view .LVU299
 1056 0130 059B     		ldr	r3, [sp, #20]
 1057              	.LBE20:
 400:../../init/config/Src/stm32h7xx_hal_msp.c **** 
 1058              		.loc 1 400 2 view .LVU300
 405:../../init/config/Src/stm32h7xx_hal_msp.c **** 	GPIO_InitStruct.Mode      = GPIO_MODE_AF_PP;
 1059              		.loc 1 405 2 view .LVU301
 405:../../init/config/Src/stm32h7xx_hal_msp.c **** 	GPIO_InitStruct.Mode      = GPIO_MODE_AF_PP;
 1060              		.loc 1 405 28 is_stmt 0 view .LVU302
 1061 0132 0C23     		movs	r3, #12
 1062 0134 3593     		str	r3, [sp, #212]
 406:../../init/config/Src/stm32h7xx_hal_msp.c **** 	GPIO_InitStruct.Pull      = GPIO_NOPULL;
 1063              		.loc 1 406 2 is_stmt 1 view .LVU303
 406:../../init/config/Src/stm32h7xx_hal_msp.c **** 	GPIO_InitStruct.Pull      = GPIO_NOPULL;
 1064              		.loc 1 406 28 is_stmt 0 view .LVU304
 1065 0136 0223     		movs	r3, #2
 1066 0138 3693     		str	r3, [sp, #216]
 407:../../init/config/Src/stm32h7xx_hal_msp.c **** 	GPIO_InitStruct.Speed     = GPIO_SPEED_FREQ_LOW;
 1067              		.loc 1 407 2 is_stmt 1 view .LVU305
 407:../../init/config/Src/stm32h7xx_hal_msp.c **** 	GPIO_InitStruct.Speed     = GPIO_SPEED_FREQ_LOW;
 1068              		.loc 1 407 28 is_stmt 0 view .LVU306
 1069 013a 0023     		movs	r3, #0
 1070 013c 3793     		str	r3, [sp, #220]
 408:../../init/config/Src/stm32h7xx_hal_msp.c **** 	GPIO_InitStruct.Alternate = GPIO_AF7_USART2;
 1071              		.loc 1 408 2 is_stmt 1 view .LVU307
 408:../../init/config/Src/stm32h7xx_hal_msp.c **** 	GPIO_InitStruct.Alternate = GPIO_AF7_USART2;
 1072              		.loc 1 408 28 is_stmt 0 view .LVU308
 1073 013e 3893     		str	r3, [sp, #224]
 409:../../init/config/Src/stm32h7xx_hal_msp.c **** 	HAL_GPIO_Init( GPIOA, &GPIO_InitStruct );
 1074              		.loc 1 409 2 is_stmt 1 view .LVU309
 409:../../init/config/Src/stm32h7xx_hal_msp.c **** 	HAL_GPIO_Init( GPIOA, &GPIO_InitStruct );
 1075              		.loc 1 409 28 is_stmt 0 view .LVU310
 1076 0140 0723     		movs	r3, #7
 1077 0142 3993     		str	r3, [sp, #228]
 410:../../init/config/Src/stm32h7xx_hal_msp.c **** 	} /* else if ( huart->Instance == USART2 ) */
 1078              		.loc 1 410 2 is_stmt 1 view .LVU311
 1079 0144 35A9     		add	r1, sp, #212
 1080 0146 0748     		ldr	r0, .L72+16
 1081 0148 FFF7FEFF 		bl	HAL_GPIO_Init
 1082              	.LVL54:
 1083              		.loc 1 413 1 is_stmt 0 view .LVU312
ARM GAS  /tmp/ccSPuacA.s 			page 31


 1084 014c 6FE7     		b	.L58
 1085              	.L71:
 1086              	.LBB21:
 395:../../init/config/Src/stm32h7xx_hal_msp.c **** 		}
 1087              		.loc 1 395 3 is_stmt 1 view .LVU313
 1088 014e FFF7FEFF 		bl	Error_Handler
 1089              	.LVL55:
 1090 0152 D5E7     		b	.L64
 1091              	.L73:
 1092              		.align	2
 1093              	.L72:
 1094 0154 004C0040 		.word	1073761280
 1095 0158 00100140 		.word	1073811456
 1096 015c 00440040 		.word	1073759232
 1097 0160 00440258 		.word	1476543488
 1098 0164 00000258 		.word	1476526080
 1099              	.LBE21:
 1100              		.cfi_endproc
 1101              	.LFE340:
 1103              		.section	.text.HAL_UART_MspDeInit,"ax",%progbits
 1104              		.align	1
 1105              		.global	HAL_UART_MspDeInit
 1106              		.syntax unified
 1107              		.thumb
 1108              		.thumb_func
 1110              	HAL_UART_MspDeInit:
 1111              	.LVL56:
 1112              	.LFB341:
 414:../../init/config/Src/stm32h7xx_hal_msp.c **** 
 415:../../init/config/Src/stm32h7xx_hal_msp.c **** 
 416:../../init/config/Src/stm32h7xx_hal_msp.c **** /*******************************************************************************
 417:../../init/config/Src/stm32h7xx_hal_msp.c **** *                                                                              *
 418:../../init/config/Src/stm32h7xx_hal_msp.c **** * PROCEDURE:                                                                   *
 419:../../init/config/Src/stm32h7xx_hal_msp.c **** * 		HAL_UART_DeMspInit                                                     *
 420:../../init/config/Src/stm32h7xx_hal_msp.c **** *                                                                              *
 421:../../init/config/Src/stm32h7xx_hal_msp.c **** * DESCRIPTION:                                                                 *
 422:../../init/config/Src/stm32h7xx_hal_msp.c **** *		SPI MSP De-initialization                                              *
 423:../../init/config/Src/stm32h7xx_hal_msp.c **** *                                                                              *
 424:../../init/config/Src/stm32h7xx_hal_msp.c **** *******************************************************************************/
 425:../../init/config/Src/stm32h7xx_hal_msp.c **** void HAL_UART_MspDeInit
 426:../../init/config/Src/stm32h7xx_hal_msp.c **** 	(
 427:../../init/config/Src/stm32h7xx_hal_msp.c **** 	UART_HandleTypeDef* huart
 428:../../init/config/Src/stm32h7xx_hal_msp.c **** 	)
 429:../../init/config/Src/stm32h7xx_hal_msp.c **** {
 1113              		.loc 1 429 1 view -0
 1114              		.cfi_startproc
 1115              		@ args = 0, pretend = 0, frame = 0
 1116              		@ frame_needed = 0, uses_anonymous_args = 0
 1117              		.loc 1 429 1 is_stmt 0 view .LVU315
 1118 0000 10B5     		push	{r4, lr}
 1119              	.LCFI21:
 1120              		.cfi_def_cfa_offset 8
 1121              		.cfi_offset 4, -8
 1122              		.cfi_offset 14, -4
 1123 0002 0446     		mov	r4, r0
 430:../../init/config/Src/stm32h7xx_hal_msp.c **** /* Wireless interface UART */
 431:../../init/config/Src/stm32h7xx_hal_msp.c **** if ( huart->Instance == UART4 )
ARM GAS  /tmp/ccSPuacA.s 			page 32


 1124              		.loc 1 431 1 is_stmt 1 view .LVU316
 1125              		.loc 1 431 11 is_stmt 0 view .LVU317
 1126 0004 0268     		ldr	r2, [r0]
 1127              		.loc 1 431 4 view .LVU318
 1128 0006 184B     		ldr	r3, .L82
 1129 0008 9A42     		cmp	r2, r3
 1130 000a 07D0     		beq	.L79
 1131              	.LVL57:
 1132              	.L75:
 432:../../init/config/Src/stm32h7xx_hal_msp.c **** 	{
 433:../../init/config/Src/stm32h7xx_hal_msp.c **** 	/* Peripheral clock disable */
 434:../../init/config/Src/stm32h7xx_hal_msp.c **** 	__HAL_RCC_UART4_CLK_DISABLE();
 435:../../init/config/Src/stm32h7xx_hal_msp.c **** 
 436:../../init/config/Src/stm32h7xx_hal_msp.c **** 	/* UART4 GPIO Configuration
 437:../../init/config/Src/stm32h7xx_hal_msp.c **** 	PA0     ------> UART4_TX
 438:../../init/config/Src/stm32h7xx_hal_msp.c **** 	PA1     ------> UART4_RX */
 439:../../init/config/Src/stm32h7xx_hal_msp.c **** 	HAL_GPIO_DeInit( GPIOA, GPIO_PIN_0 | GPIO_PIN_1 );
 440:../../init/config/Src/stm32h7xx_hal_msp.c **** 	}
 441:../../init/config/Src/stm32h7xx_hal_msp.c **** 
 442:../../init/config/Src/stm32h7xx_hal_msp.c **** /* USB UART */
 443:../../init/config/Src/stm32h7xx_hal_msp.c **** if ( huart->Instance == USART1 )
 1133              		.loc 1 443 1 is_stmt 1 view .LVU319
 1134              		.loc 1 443 11 is_stmt 0 view .LVU320
 1135 000c 2368     		ldr	r3, [r4]
 1136              		.loc 1 443 4 view .LVU321
 1137 000e 174A     		ldr	r2, .L82+4
 1138 0010 9342     		cmp	r3, r2
 1139 0012 0FD0     		beq	.L80
 444:../../init/config/Src/stm32h7xx_hal_msp.c **** 	{
 445:../../init/config/Src/stm32h7xx_hal_msp.c **** 	/* Peripheral clock disable */
 446:../../init/config/Src/stm32h7xx_hal_msp.c **** 	__HAL_RCC_USART1_CLK_DISABLE();
 447:../../init/config/Src/stm32h7xx_hal_msp.c **** 
 448:../../init/config/Src/stm32h7xx_hal_msp.c **** 	/* USART1 GPIO Configuration
 449:../../init/config/Src/stm32h7xx_hal_msp.c **** 	PA9     ------> USART1_TX
 450:../../init/config/Src/stm32h7xx_hal_msp.c **** 	PA10     ------> USART1_RX */
 451:../../init/config/Src/stm32h7xx_hal_msp.c **** 	HAL_GPIO_DeInit( GPIOA, GPIO_PIN_9 | GPIO_PIN_10 );
 452:../../init/config/Src/stm32h7xx_hal_msp.c **** 	} /* if ( huart->Instance == USART1 ) */
 453:../../init/config/Src/stm32h7xx_hal_msp.c **** 
 454:../../init/config/Src/stm32h7xx_hal_msp.c **** /* Valve Control UART */
 455:../../init/config/Src/stm32h7xx_hal_msp.c **** else if( huart->Instance == USART2 )
 1140              		.loc 1 455 6 is_stmt 1 view .LVU322
 1141              		.loc 1 455 8 is_stmt 0 view .LVU323
 1142 0014 164A     		ldr	r2, .L82+8
 1143 0016 9342     		cmp	r3, r2
 1144 0018 19D0     		beq	.L81
 1145              	.L74:
 456:../../init/config/Src/stm32h7xx_hal_msp.c **** 	{
 457:../../init/config/Src/stm32h7xx_hal_msp.c **** 	/* Peripheral clock disable */
 458:../../init/config/Src/stm32h7xx_hal_msp.c **** 	__HAL_RCC_USART2_CLK_DISABLE();
 459:../../init/config/Src/stm32h7xx_hal_msp.c **** 
 460:../../init/config/Src/stm32h7xx_hal_msp.c **** 	/* USART2 GPIO Configuration
 461:../../init/config/Src/stm32h7xx_hal_msp.c **** 	PA2     ------> USART2_TX
 462:../../init/config/Src/stm32h7xx_hal_msp.c **** 	PA3     ------> USART2_RX */
 463:../../init/config/Src/stm32h7xx_hal_msp.c **** 	HAL_GPIO_DeInit( GPIOA, GPIO_PIN_2 | GPIO_PIN_3 );
 464:../../init/config/Src/stm32h7xx_hal_msp.c **** 	} /* else if ( huart->Instance == USART2 ) */
 465:../../init/config/Src/stm32h7xx_hal_msp.c ****  
 466:../../init/config/Src/stm32h7xx_hal_msp.c **** } /* HAL_UART_DeMspInit */
ARM GAS  /tmp/ccSPuacA.s 			page 33


 1146              		.loc 1 466 1 view .LVU324
 1147 001a 10BD     		pop	{r4, pc}
 1148              	.LVL58:
 1149              	.L79:
 434:../../init/config/Src/stm32h7xx_hal_msp.c **** 
 1150              		.loc 1 434 2 is_stmt 1 view .LVU325
 1151 001c 154A     		ldr	r2, .L82+12
 1152 001e D2F8E830 		ldr	r3, [r2, #232]
 1153 0022 23F40023 		bic	r3, r3, #524288
 1154 0026 C2F8E830 		str	r3, [r2, #232]
 439:../../init/config/Src/stm32h7xx_hal_msp.c **** 	}
 1155              		.loc 1 439 2 view .LVU326
 1156 002a 0321     		movs	r1, #3
 1157 002c 1248     		ldr	r0, .L82+16
 1158              	.LVL59:
 439:../../init/config/Src/stm32h7xx_hal_msp.c **** 	}
 1159              		.loc 1 439 2 is_stmt 0 view .LVU327
 1160 002e FFF7FEFF 		bl	HAL_GPIO_DeInit
 1161              	.LVL60:
 1162 0032 EBE7     		b	.L75
 1163              	.L80:
 446:../../init/config/Src/stm32h7xx_hal_msp.c **** 
 1164              		.loc 1 446 2 is_stmt 1 view .LVU328
 1165 0034 0F4A     		ldr	r2, .L82+12
 1166 0036 D2F8F030 		ldr	r3, [r2, #240]
 1167 003a 23F01003 		bic	r3, r3, #16
 1168 003e C2F8F030 		str	r3, [r2, #240]
 451:../../init/config/Src/stm32h7xx_hal_msp.c **** 	} /* if ( huart->Instance == USART1 ) */
 1169              		.loc 1 451 2 view .LVU329
 1170 0042 4FF4C061 		mov	r1, #1536
 1171 0046 0C48     		ldr	r0, .L82+16
 1172 0048 FFF7FEFF 		bl	HAL_GPIO_DeInit
 1173              	.LVL61:
 1174 004c E5E7     		b	.L74
 1175              	.L81:
 458:../../init/config/Src/stm32h7xx_hal_msp.c **** 
 1176              		.loc 1 458 2 view .LVU330
 1177 004e 094A     		ldr	r2, .L82+12
 1178 0050 D2F8E830 		ldr	r3, [r2, #232]
 1179 0054 23F40033 		bic	r3, r3, #131072
 1180 0058 C2F8E830 		str	r3, [r2, #232]
 463:../../init/config/Src/stm32h7xx_hal_msp.c **** 	} /* else if ( huart->Instance == USART2 ) */
 1181              		.loc 1 463 2 view .LVU331
 1182 005c 0C21     		movs	r1, #12
 1183 005e 0648     		ldr	r0, .L82+16
 1184 0060 FFF7FEFF 		bl	HAL_GPIO_DeInit
 1185              	.LVL62:
 1186              		.loc 1 466 1 is_stmt 0 view .LVU332
 1187 0064 D9E7     		b	.L74
 1188              	.L83:
 1189 0066 00BF     		.align	2
 1190              	.L82:
 1191 0068 004C0040 		.word	1073761280
 1192 006c 00100140 		.word	1073811456
 1193 0070 00440040 		.word	1073759232
 1194 0074 00440258 		.word	1476543488
 1195 0078 00000258 		.word	1476526080
ARM GAS  /tmp/ccSPuacA.s 			page 34


 1196              		.cfi_endproc
 1197              	.LFE341:
 1199              		.section	.bss.HAL_RCC_ADC12_CLK_ENABLED,"aw",%nobits
 1200              		.align	2
 1203              	HAL_RCC_ADC12_CLK_ENABLED:
 1204 0000 00000000 		.space	4
 1205              		.text
 1206              	.Letext0:
 1207              		.file 2 "/usr/arm-none-eabi/include/machine/_default_types.h"
 1208              		.file 3 "/usr/arm-none-eabi/include/sys/_stdint.h"
 1209              		.file 4 "../../lib/Drivers/CMSIS/Device/ST/STM32H7xx/Include/stm32h750xx.h"
 1210              		.file 5 "../../lib/Drivers/CMSIS/Device/ST/STM32H7xx/Include/stm32h7xx.h"
 1211              		.file 6 "../../lib/Drivers/STM32H7xx_HAL_Driver/Inc/stm32h7xx_hal_def.h"
 1212              		.file 7 "../../lib/Drivers/STM32H7xx_HAL_Driver/Inc/stm32h7xx_hal_rcc_ex.h"
 1213              		.file 8 "../../lib/Drivers/STM32H7xx_HAL_Driver/Inc/stm32h7xx_hal_gpio.h"
 1214              		.file 9 "../../lib/Drivers/STM32H7xx_HAL_Driver/Inc/stm32h7xx_hal_dma.h"
 1215              		.file 10 "../../lib/Drivers/STM32H7xx_HAL_Driver/Inc/stm32h7xx_hal_adc.h"
 1216              		.file 11 "../../lib/Drivers/STM32H7xx_HAL_Driver/Inc/stm32h7xx_hal_i2c.h"
 1217              		.file 12 "../../lib/Drivers/STM32H7xx_HAL_Driver/Inc/stm32h7xx_hal_spi.h"
 1218              		.file 13 "../../lib/Drivers/STM32H7xx_HAL_Driver/Inc/stm32h7xx_hal_uart.h"
 1219              		.file 14 "<built-in>"
ARM GAS  /tmp/ccSPuacA.s 			page 35

