ARM GAS  /tmp/ccUO94Cz.s 			page 1


   1              		.cpu cortex-m7
   2              		.arch armv7e-m
   3              		.fpu fpv5-d16
   4              		.eabi_attribute 28, 1
   5              		.eabi_attribute 20, 1
   6              		.eabi_attribute 21, 1
   7              		.eabi_attribute 23, 3
   8              		.eabi_attribute 24, 1
   9              		.eabi_attribute 25, 1
  10              		.eabi_attribute 26, 1
  11              		.eabi_attribute 30, 1
  12              		.eabi_attribute 34, 1
  13              		.eabi_attribute 18, 4
  14              		.file	"stm32h7xx_it.c"
  15              		.text
  16              	.Ltext0:
  17              		.cfi_sections	.debug_frame
  18              		.file 1 "../../init/config/Src/stm32h7xx_it.c"
  19              		.section	.text.NMI_Handler,"ax",%progbits
  20              		.align	1
  21              		.global	NMI_Handler
  22              		.syntax unified
  23              		.thumb
  24              		.thumb_func
  26              	NMI_Handler:
  27              	.LFB333:
   1:../../init/config/Src/stm32h7xx_it.c **** /* USER CODE BEGIN Header */
   2:../../init/config/Src/stm32h7xx_it.c **** /**
   3:../../init/config/Src/stm32h7xx_it.c ****   ******************************************************************************
   4:../../init/config/Src/stm32h7xx_it.c ****   * @file    stm32h7xx_it.c
   5:../../init/config/Src/stm32h7xx_it.c ****   * @brief   Interrupt Service Routines.
   6:../../init/config/Src/stm32h7xx_it.c ****   ******************************************************************************
   7:../../init/config/Src/stm32h7xx_it.c ****   * @attention
   8:../../init/config/Src/stm32h7xx_it.c ****   *
   9:../../init/config/Src/stm32h7xx_it.c ****   * Copyright (c) 2022 STMicroelectronics.
  10:../../init/config/Src/stm32h7xx_it.c ****   * All rights reserved.
  11:../../init/config/Src/stm32h7xx_it.c ****   *
  12:../../init/config/Src/stm32h7xx_it.c ****   * This software is licensed under terms that can be found in the LICENSE file
  13:../../init/config/Src/stm32h7xx_it.c ****   * in the root directory of this software component.
  14:../../init/config/Src/stm32h7xx_it.c ****   * If no LICENSE file comes with this software, it is provided AS-IS.
  15:../../init/config/Src/stm32h7xx_it.c ****   *
  16:../../init/config/Src/stm32h7xx_it.c ****   ******************************************************************************
  17:../../init/config/Src/stm32h7xx_it.c ****   */
  18:../../init/config/Src/stm32h7xx_it.c **** /* USER CODE END Header */
  19:../../init/config/Src/stm32h7xx_it.c **** 
  20:../../init/config/Src/stm32h7xx_it.c **** /* Includes ------------------------------------------------------------------*/
  21:../../init/config/Src/stm32h7xx_it.c **** #include "main.h"
  22:../../init/config/Src/stm32h7xx_it.c **** #include "stm32h7xx_it.h"
  23:../../init/config/Src/stm32h7xx_it.c **** /* Private includes ----------------------------------------------------------*/
  24:../../init/config/Src/stm32h7xx_it.c **** /* USER CODE BEGIN Includes */
  25:../../init/config/Src/stm32h7xx_it.c **** /* USER CODE END Includes */
  26:../../init/config/Src/stm32h7xx_it.c **** 
  27:../../init/config/Src/stm32h7xx_it.c **** /* Private typedef -----------------------------------------------------------*/
  28:../../init/config/Src/stm32h7xx_it.c **** /* USER CODE BEGIN TD */
  29:../../init/config/Src/stm32h7xx_it.c **** 
  30:../../init/config/Src/stm32h7xx_it.c **** /* USER CODE END TD */
  31:../../init/config/Src/stm32h7xx_it.c **** 
ARM GAS  /tmp/ccUO94Cz.s 			page 2


  32:../../init/config/Src/stm32h7xx_it.c **** /* Private define ------------------------------------------------------------*/
  33:../../init/config/Src/stm32h7xx_it.c **** /* USER CODE BEGIN PD */
  34:../../init/config/Src/stm32h7xx_it.c **** 
  35:../../init/config/Src/stm32h7xx_it.c **** /* USER CODE END PD */
  36:../../init/config/Src/stm32h7xx_it.c **** 
  37:../../init/config/Src/stm32h7xx_it.c **** /* Private macro -------------------------------------------------------------*/
  38:../../init/config/Src/stm32h7xx_it.c **** /* USER CODE BEGIN PM */
  39:../../init/config/Src/stm32h7xx_it.c **** 
  40:../../init/config/Src/stm32h7xx_it.c **** /* USER CODE END PM */
  41:../../init/config/Src/stm32h7xx_it.c **** 
  42:../../init/config/Src/stm32h7xx_it.c **** /* Private variables ---------------------------------------------------------*/
  43:../../init/config/Src/stm32h7xx_it.c **** /* USER CODE BEGIN PV */
  44:../../init/config/Src/stm32h7xx_it.c **** 
  45:../../init/config/Src/stm32h7xx_it.c **** /* USER CODE END PV */
  46:../../init/config/Src/stm32h7xx_it.c **** 
  47:../../init/config/Src/stm32h7xx_it.c **** /* Private function prototypes -----------------------------------------------*/
  48:../../init/config/Src/stm32h7xx_it.c **** /* USER CODE BEGIN PFP */
  49:../../init/config/Src/stm32h7xx_it.c **** 
  50:../../init/config/Src/stm32h7xx_it.c **** /* USER CODE END PFP */
  51:../../init/config/Src/stm32h7xx_it.c **** 
  52:../../init/config/Src/stm32h7xx_it.c **** /* Private user code ---------------------------------------------------------*/
  53:../../init/config/Src/stm32h7xx_it.c **** /* USER CODE BEGIN 0 */
  54:../../init/config/Src/stm32h7xx_it.c **** 
  55:../../init/config/Src/stm32h7xx_it.c **** /* USER CODE END 0 */
  56:../../init/config/Src/stm32h7xx_it.c **** 
  57:../../init/config/Src/stm32h7xx_it.c **** /* External variables --------------------------------------------------------*/
  58:../../init/config/Src/stm32h7xx_it.c **** 
  59:../../init/config/Src/stm32h7xx_it.c **** /* USER CODE BEGIN EV */
  60:../../init/config/Src/stm32h7xx_it.c **** 
  61:../../init/config/Src/stm32h7xx_it.c **** /* USER CODE END EV */
  62:../../init/config/Src/stm32h7xx_it.c **** 
  63:../../init/config/Src/stm32h7xx_it.c **** /******************************************************************************/
  64:../../init/config/Src/stm32h7xx_it.c **** /*           Cortex Processor Interruption and Exception Handlers          */
  65:../../init/config/Src/stm32h7xx_it.c **** /******************************************************************************/
  66:../../init/config/Src/stm32h7xx_it.c **** /**
  67:../../init/config/Src/stm32h7xx_it.c ****   * @brief This function handles Non maskable interrupt.
  68:../../init/config/Src/stm32h7xx_it.c ****   */
  69:../../init/config/Src/stm32h7xx_it.c **** void NMI_Handler(void)
  70:../../init/config/Src/stm32h7xx_it.c **** {
  28              		.loc 1 70 1 view -0
  29              		.cfi_startproc
  30              		@ Volatile: function does not return.
  31              		@ args = 0, pretend = 0, frame = 0
  32              		@ frame_needed = 0, uses_anonymous_args = 0
  33 0000 08B5     		push	{r3, lr}
  34              	.LCFI0:
  35              		.cfi_def_cfa_offset 8
  36              		.cfi_offset 3, -8
  37              		.cfi_offset 14, -4
  71:../../init/config/Src/stm32h7xx_it.c ****   /* USER CODE BEGIN NonMaskableInt_IRQn 0 */
  72:../../init/config/Src/stm32h7xx_it.c ****   Error_Handler();
  38              		.loc 1 72 3 view .LVU1
  39 0002 FFF7FEFF 		bl	Error_Handler
  40              	.LVL0:
  41              	.L2:
  73:../../init/config/Src/stm32h7xx_it.c **** 
  74:../../init/config/Src/stm32h7xx_it.c ****   /* USER CODE END NonMaskableInt_IRQn 0 */
ARM GAS  /tmp/ccUO94Cz.s 			page 3


  75:../../init/config/Src/stm32h7xx_it.c ****   /* USER CODE BEGIN NonMaskableInt_IRQn 1 */
  76:../../init/config/Src/stm32h7xx_it.c ****   while (1)
  42              		.loc 1 76 3 discriminator 1 view .LVU2
  77:../../init/config/Src/stm32h7xx_it.c ****   {
  78:../../init/config/Src/stm32h7xx_it.c ****   }
  43              		.loc 1 78 3 discriminator 1 view .LVU3
  76:../../init/config/Src/stm32h7xx_it.c ****   {
  44              		.loc 1 76 9 discriminator 1 view .LVU4
  45 0006 FEE7     		b	.L2
  46              		.cfi_endproc
  47              	.LFE333:
  49              		.section	.text.HardFault_Handler,"ax",%progbits
  50              		.align	1
  51              		.global	HardFault_Handler
  52              		.syntax unified
  53              		.thumb
  54              		.thumb_func
  56              	HardFault_Handler:
  57              	.LFB334:
  79:../../init/config/Src/stm32h7xx_it.c ****   /* USER CODE END NonMaskableInt_IRQn 1 */
  80:../../init/config/Src/stm32h7xx_it.c **** }
  81:../../init/config/Src/stm32h7xx_it.c **** 
  82:../../init/config/Src/stm32h7xx_it.c **** /**
  83:../../init/config/Src/stm32h7xx_it.c ****   * @brief This function handles Hard fault interrupt.
  84:../../init/config/Src/stm32h7xx_it.c ****   */
  85:../../init/config/Src/stm32h7xx_it.c **** void HardFault_Handler(void)
  86:../../init/config/Src/stm32h7xx_it.c **** {
  58              		.loc 1 86 1 view -0
  59              		.cfi_startproc
  60              		@ Volatile: function does not return.
  61              		@ args = 0, pretend = 0, frame = 0
  62              		@ frame_needed = 0, uses_anonymous_args = 0
  63 0000 08B5     		push	{r3, lr}
  64              	.LCFI1:
  65              		.cfi_def_cfa_offset 8
  66              		.cfi_offset 3, -8
  67              		.cfi_offset 14, -4
  87:../../init/config/Src/stm32h7xx_it.c ****   /* USER CODE BEGIN HardFault_IRQn 0 */
  88:../../init/config/Src/stm32h7xx_it.c ****   Error_Handler();
  68              		.loc 1 88 3 view .LVU6
  69 0002 FFF7FEFF 		bl	Error_Handler
  70              	.LVL1:
  71              	.L5:
  89:../../init/config/Src/stm32h7xx_it.c **** 
  90:../../init/config/Src/stm32h7xx_it.c ****   /* USER CODE END HardFault_IRQn 0 */
  91:../../init/config/Src/stm32h7xx_it.c ****   while (1)
  72              		.loc 1 91 3 discriminator 1 view .LVU7
  92:../../init/config/Src/stm32h7xx_it.c ****   {
  93:../../init/config/Src/stm32h7xx_it.c ****     /* USER CODE BEGIN W1_HardFault_IRQn 0 */
  94:../../init/config/Src/stm32h7xx_it.c ****     /* USER CODE END W1_HardFault_IRQn 0 */
  95:../../init/config/Src/stm32h7xx_it.c ****   }
  73              		.loc 1 95 3 discriminator 1 view .LVU8
  91:../../init/config/Src/stm32h7xx_it.c ****   {
  74              		.loc 1 91 9 discriminator 1 view .LVU9
  75 0006 FEE7     		b	.L5
  76              		.cfi_endproc
  77              	.LFE334:
ARM GAS  /tmp/ccUO94Cz.s 			page 4


  79              		.section	.text.MemManage_Handler,"ax",%progbits
  80              		.align	1
  81              		.global	MemManage_Handler
  82              		.syntax unified
  83              		.thumb
  84              		.thumb_func
  86              	MemManage_Handler:
  87              	.LFB335:
  96:../../init/config/Src/stm32h7xx_it.c **** }
  97:../../init/config/Src/stm32h7xx_it.c **** 
  98:../../init/config/Src/stm32h7xx_it.c **** /**
  99:../../init/config/Src/stm32h7xx_it.c ****   * @brief This function handles Memory management fault.
 100:../../init/config/Src/stm32h7xx_it.c ****   */
 101:../../init/config/Src/stm32h7xx_it.c **** void MemManage_Handler(void)
 102:../../init/config/Src/stm32h7xx_it.c **** {
  88              		.loc 1 102 1 view -0
  89              		.cfi_startproc
  90              		@ Volatile: function does not return.
  91              		@ args = 0, pretend = 0, frame = 0
  92              		@ frame_needed = 0, uses_anonymous_args = 0
  93 0000 08B5     		push	{r3, lr}
  94              	.LCFI2:
  95              		.cfi_def_cfa_offset 8
  96              		.cfi_offset 3, -8
  97              		.cfi_offset 14, -4
 103:../../init/config/Src/stm32h7xx_it.c ****   /* USER CODE BEGIN MemoryManagement_IRQn 0 */
 104:../../init/config/Src/stm32h7xx_it.c ****   Error_Handler();
  98              		.loc 1 104 3 view .LVU11
  99 0002 FFF7FEFF 		bl	Error_Handler
 100              	.LVL2:
 101              	.L8:
 105:../../init/config/Src/stm32h7xx_it.c **** 
 106:../../init/config/Src/stm32h7xx_it.c ****   /* USER CODE END MemoryManagement_IRQn 0 */
 107:../../init/config/Src/stm32h7xx_it.c ****   while (1)
 102              		.loc 1 107 3 discriminator 1 view .LVU12
 108:../../init/config/Src/stm32h7xx_it.c ****   {
 109:../../init/config/Src/stm32h7xx_it.c ****     /* USER CODE BEGIN W1_MemoryManagement_IRQn 0 */
 110:../../init/config/Src/stm32h7xx_it.c ****     /* USER CODE END W1_MemoryManagement_IRQn 0 */
 111:../../init/config/Src/stm32h7xx_it.c ****   }
 103              		.loc 1 111 3 discriminator 1 view .LVU13
 107:../../init/config/Src/stm32h7xx_it.c ****   {
 104              		.loc 1 107 9 discriminator 1 view .LVU14
 105 0006 FEE7     		b	.L8
 106              		.cfi_endproc
 107              	.LFE335:
 109              		.section	.text.BusFault_Handler,"ax",%progbits
 110              		.align	1
 111              		.global	BusFault_Handler
 112              		.syntax unified
 113              		.thumb
 114              		.thumb_func
 116              	BusFault_Handler:
 117              	.LFB336:
 112:../../init/config/Src/stm32h7xx_it.c **** }
 113:../../init/config/Src/stm32h7xx_it.c **** 
 114:../../init/config/Src/stm32h7xx_it.c **** /**
 115:../../init/config/Src/stm32h7xx_it.c ****   * @brief This function handles Pre-fetch fault, memory access fault.
ARM GAS  /tmp/ccUO94Cz.s 			page 5


 116:../../init/config/Src/stm32h7xx_it.c ****   */
 117:../../init/config/Src/stm32h7xx_it.c **** void BusFault_Handler(void)
 118:../../init/config/Src/stm32h7xx_it.c **** {
 118              		.loc 1 118 1 view -0
 119              		.cfi_startproc
 120              		@ Volatile: function does not return.
 121              		@ args = 0, pretend = 0, frame = 0
 122              		@ frame_needed = 0, uses_anonymous_args = 0
 123 0000 08B5     		push	{r3, lr}
 124              	.LCFI3:
 125              		.cfi_def_cfa_offset 8
 126              		.cfi_offset 3, -8
 127              		.cfi_offset 14, -4
 119:../../init/config/Src/stm32h7xx_it.c ****   /* USER CODE BEGIN BusFault_IRQn 0 */
 120:../../init/config/Src/stm32h7xx_it.c ****   Error_Handler();
 128              		.loc 1 120 3 view .LVU16
 129 0002 FFF7FEFF 		bl	Error_Handler
 130              	.LVL3:
 131              	.L11:
 121:../../init/config/Src/stm32h7xx_it.c **** 
 122:../../init/config/Src/stm32h7xx_it.c ****   /* USER CODE END BusFault_IRQn 0 */
 123:../../init/config/Src/stm32h7xx_it.c ****   while (1)
 132              		.loc 1 123 3 discriminator 1 view .LVU17
 124:../../init/config/Src/stm32h7xx_it.c ****   {
 125:../../init/config/Src/stm32h7xx_it.c ****     /* USER CODE BEGIN W1_BusFault_IRQn 0 */
 126:../../init/config/Src/stm32h7xx_it.c ****     /* USER CODE END W1_BusFault_IRQn 0 */
 127:../../init/config/Src/stm32h7xx_it.c ****   }
 133              		.loc 1 127 3 discriminator 1 view .LVU18
 123:../../init/config/Src/stm32h7xx_it.c ****   {
 134              		.loc 1 123 9 discriminator 1 view .LVU19
 135 0006 FEE7     		b	.L11
 136              		.cfi_endproc
 137              	.LFE336:
 139              		.section	.text.UsageFault_Handler,"ax",%progbits
 140              		.align	1
 141              		.global	UsageFault_Handler
 142              		.syntax unified
 143              		.thumb
 144              		.thumb_func
 146              	UsageFault_Handler:
 147              	.LFB337:
 128:../../init/config/Src/stm32h7xx_it.c **** }
 129:../../init/config/Src/stm32h7xx_it.c **** 
 130:../../init/config/Src/stm32h7xx_it.c **** /**
 131:../../init/config/Src/stm32h7xx_it.c ****   * @brief This function handles Undefined instruction or illegal state.
 132:../../init/config/Src/stm32h7xx_it.c ****   */
 133:../../init/config/Src/stm32h7xx_it.c **** void UsageFault_Handler(void)
 134:../../init/config/Src/stm32h7xx_it.c **** {
 148              		.loc 1 134 1 view -0
 149              		.cfi_startproc
 150              		@ Volatile: function does not return.
 151              		@ args = 0, pretend = 0, frame = 0
 152              		@ frame_needed = 0, uses_anonymous_args = 0
 153 0000 08B5     		push	{r3, lr}
 154              	.LCFI4:
 155              		.cfi_def_cfa_offset 8
 156              		.cfi_offset 3, -8
ARM GAS  /tmp/ccUO94Cz.s 			page 6


 157              		.cfi_offset 14, -4
 135:../../init/config/Src/stm32h7xx_it.c ****   /* USER CODE BEGIN UsageFault_IRQn 0 */
 136:../../init/config/Src/stm32h7xx_it.c ****   Error_Handler();
 158              		.loc 1 136 3 view .LVU21
 159 0002 FFF7FEFF 		bl	Error_Handler
 160              	.LVL4:
 161              	.L14:
 137:../../init/config/Src/stm32h7xx_it.c **** 
 138:../../init/config/Src/stm32h7xx_it.c ****   /* USER CODE END UsageFault_IRQn 0 */
 139:../../init/config/Src/stm32h7xx_it.c ****   while (1)
 162              		.loc 1 139 3 discriminator 1 view .LVU22
 140:../../init/config/Src/stm32h7xx_it.c ****   {
 141:../../init/config/Src/stm32h7xx_it.c ****     /* USER CODE BEGIN W1_UsageFault_IRQn 0 */
 142:../../init/config/Src/stm32h7xx_it.c ****     /* USER CODE END W1_UsageFault_IRQn 0 */
 143:../../init/config/Src/stm32h7xx_it.c ****   }
 163              		.loc 1 143 3 discriminator 1 view .LVU23
 139:../../init/config/Src/stm32h7xx_it.c ****   {
 164              		.loc 1 139 9 discriminator 1 view .LVU24
 165 0006 FEE7     		b	.L14
 166              		.cfi_endproc
 167              	.LFE337:
 169              		.section	.text.SVC_Handler,"ax",%progbits
 170              		.align	1
 171              		.global	SVC_Handler
 172              		.syntax unified
 173              		.thumb
 174              		.thumb_func
 176              	SVC_Handler:
 177              	.LFB338:
 144:../../init/config/Src/stm32h7xx_it.c **** }
 145:../../init/config/Src/stm32h7xx_it.c **** 
 146:../../init/config/Src/stm32h7xx_it.c **** /**
 147:../../init/config/Src/stm32h7xx_it.c ****   * @brief This function handles System service call via SWI instruction.
 148:../../init/config/Src/stm32h7xx_it.c ****   */
 149:../../init/config/Src/stm32h7xx_it.c **** void SVC_Handler(void)
 150:../../init/config/Src/stm32h7xx_it.c **** {
 178              		.loc 1 150 1 view -0
 179              		.cfi_startproc
 180              		@ args = 0, pretend = 0, frame = 0
 181              		@ frame_needed = 0, uses_anonymous_args = 0
 182              		@ link register save eliminated.
 151:../../init/config/Src/stm32h7xx_it.c ****   /* USER CODE BEGIN SVCall_IRQn 0 */
 152:../../init/config/Src/stm32h7xx_it.c **** 
 153:../../init/config/Src/stm32h7xx_it.c ****   /* USER CODE END SVCall_IRQn 0 */
 154:../../init/config/Src/stm32h7xx_it.c ****   /* USER CODE BEGIN SVCall_IRQn 1 */
 155:../../init/config/Src/stm32h7xx_it.c **** 
 156:../../init/config/Src/stm32h7xx_it.c ****   /* USER CODE END SVCall_IRQn 1 */
 157:../../init/config/Src/stm32h7xx_it.c **** }
 183              		.loc 1 157 1 view .LVU26
 184 0000 7047     		bx	lr
 185              		.cfi_endproc
 186              	.LFE338:
 188              		.section	.text.DebugMon_Handler,"ax",%progbits
 189              		.align	1
 190              		.global	DebugMon_Handler
 191              		.syntax unified
 192              		.thumb
ARM GAS  /tmp/ccUO94Cz.s 			page 7


 193              		.thumb_func
 195              	DebugMon_Handler:
 196              	.LFB339:
 158:../../init/config/Src/stm32h7xx_it.c **** 
 159:../../init/config/Src/stm32h7xx_it.c **** /**
 160:../../init/config/Src/stm32h7xx_it.c ****   * @brief This function handles Debug monitor.
 161:../../init/config/Src/stm32h7xx_it.c ****   */
 162:../../init/config/Src/stm32h7xx_it.c **** void DebugMon_Handler(void)
 163:../../init/config/Src/stm32h7xx_it.c **** {
 197              		.loc 1 163 1 view -0
 198              		.cfi_startproc
 199              		@ args = 0, pretend = 0, frame = 0
 200              		@ frame_needed = 0, uses_anonymous_args = 0
 201              		@ link register save eliminated.
 164:../../init/config/Src/stm32h7xx_it.c ****   /* USER CODE BEGIN DebugMonitor_IRQn 0 */
 165:../../init/config/Src/stm32h7xx_it.c **** 
 166:../../init/config/Src/stm32h7xx_it.c ****   /* USER CODE END DebugMonitor_IRQn 0 */
 167:../../init/config/Src/stm32h7xx_it.c ****   /* USER CODE BEGIN DebugMonitor_IRQn 1 */
 168:../../init/config/Src/stm32h7xx_it.c **** 
 169:../../init/config/Src/stm32h7xx_it.c ****   /* USER CODE END DebugMonitor_IRQn 1 */
 170:../../init/config/Src/stm32h7xx_it.c **** }
 202              		.loc 1 170 1 view .LVU28
 203 0000 7047     		bx	lr
 204              		.cfi_endproc
 205              	.LFE339:
 207              		.section	.text.PendSV_Handler,"ax",%progbits
 208              		.align	1
 209              		.global	PendSV_Handler
 210              		.syntax unified
 211              		.thumb
 212              		.thumb_func
 214              	PendSV_Handler:
 215              	.LFB340:
 171:../../init/config/Src/stm32h7xx_it.c **** 
 172:../../init/config/Src/stm32h7xx_it.c **** /**
 173:../../init/config/Src/stm32h7xx_it.c ****   * @brief This function handles Pendable request for system service.
 174:../../init/config/Src/stm32h7xx_it.c ****   */
 175:../../init/config/Src/stm32h7xx_it.c **** void PendSV_Handler(void)
 176:../../init/config/Src/stm32h7xx_it.c **** {
 216              		.loc 1 176 1 view -0
 217              		.cfi_startproc
 218              		@ args = 0, pretend = 0, frame = 0
 219              		@ frame_needed = 0, uses_anonymous_args = 0
 220              		@ link register save eliminated.
 177:../../init/config/Src/stm32h7xx_it.c ****   /* USER CODE BEGIN PendSV_IRQn 0 */
 178:../../init/config/Src/stm32h7xx_it.c **** 
 179:../../init/config/Src/stm32h7xx_it.c ****   /* USER CODE END PendSV_IRQn 0 */
 180:../../init/config/Src/stm32h7xx_it.c ****   /* USER CODE BEGIN PendSV_IRQn 1 */
 181:../../init/config/Src/stm32h7xx_it.c **** 
 182:../../init/config/Src/stm32h7xx_it.c ****   /* USER CODE END PendSV_IRQn 1 */
 183:../../init/config/Src/stm32h7xx_it.c **** }
 221              		.loc 1 183 1 view .LVU30
 222 0000 7047     		bx	lr
 223              		.cfi_endproc
 224              	.LFE340:
 226              		.section	.text.SysTick_Handler,"ax",%progbits
 227              		.align	1
ARM GAS  /tmp/ccUO94Cz.s 			page 8


 228              		.global	SysTick_Handler
 229              		.syntax unified
 230              		.thumb
 231              		.thumb_func
 233              	SysTick_Handler:
 234              	.LFB341:
 184:../../init/config/Src/stm32h7xx_it.c **** 
 185:../../init/config/Src/stm32h7xx_it.c **** /**
 186:../../init/config/Src/stm32h7xx_it.c ****   * @brief This function handles System tick timer.
 187:../../init/config/Src/stm32h7xx_it.c ****   */
 188:../../init/config/Src/stm32h7xx_it.c **** void SysTick_Handler(void)
 189:../../init/config/Src/stm32h7xx_it.c **** {
 235              		.loc 1 189 1 view -0
 236              		.cfi_startproc
 237              		@ args = 0, pretend = 0, frame = 0
 238              		@ frame_needed = 0, uses_anonymous_args = 0
 239 0000 08B5     		push	{r3, lr}
 240              	.LCFI5:
 241              		.cfi_def_cfa_offset 8
 242              		.cfi_offset 3, -8
 243              		.cfi_offset 14, -4
 190:../../init/config/Src/stm32h7xx_it.c ****   /* USER CODE BEGIN SysTick_IRQn 0 */
 191:../../init/config/Src/stm32h7xx_it.c **** 
 192:../../init/config/Src/stm32h7xx_it.c ****   /* USER CODE END SysTick_IRQn 0 */
 193:../../init/config/Src/stm32h7xx_it.c ****   HAL_IncTick();
 244              		.loc 1 193 3 view .LVU32
 245 0002 FFF7FEFF 		bl	HAL_IncTick
 246              	.LVL5:
 194:../../init/config/Src/stm32h7xx_it.c ****   /* USER CODE BEGIN SysTick_IRQn 1 */
 195:../../init/config/Src/stm32h7xx_it.c **** 
 196:../../init/config/Src/stm32h7xx_it.c ****   /* USER CODE END SysTick_IRQn 1 */
 197:../../init/config/Src/stm32h7xx_it.c **** }
 247              		.loc 1 197 1 is_stmt 0 view .LVU33
 248 0006 08BD     		pop	{r3, pc}
 249              		.cfi_endproc
 250              	.LFE341:
 252              		.text
 253              	.Letext0:
 254              		.file 2 "../../lib/Drivers/STM32H7xx_HAL_Driver/Inc/stm32h7xx_hal.h"
ARM GAS  /tmp/ccUO94Cz.s 			page 9

